	.file	"x86ooo.cpp"
	.text
	.section	.text$_Z6printfPKcz,"x"
	.linkonce discard
	.globl	_Z6printfPKcz
	.def	_Z6printfPKcz;	.scl	2;	.type	32;	.endef
	.seh_proc	_Z6printfPKcz
_Z6printfPKcz:
.LFB960:
	pushq	%rsi
	.seh_pushreg	%rsi
	pushq	%rbx
	.seh_pushreg	%rbx
	subq	$56, %rsp
	.seh_stackalloc	56
	.seh_endprologue
	movq	%rcx, %rbx
	movq	%rdx, 88(%rsp)
	movq	%r8, 96(%rsp)
	movq	%r9, 104(%rsp)
	leaq	88(%rsp), %rsi
	movq	%rsi, 40(%rsp)
	movl	$1, %ecx
	call	*__imp___acrt_iob_func(%rip)
	movq	%rax, %rcx
	movq	%rsi, %r8
	movq	%rbx, %rdx
	call	__mingw_vfprintf
	addq	$56, %rsp
	popq	%rbx
	popq	%rsi
	ret
	.seh_endproc
	.section .rdata,"dr"
.LC0:
	.ascii "%d %ld\0"
	.text
	.globl	main
	.def	main;	.scl	2;	.type	32;	.endef
	.seh_proc	main
main:
.LFB10662:
	pushq	%r14
	.seh_pushreg	%r14
	pushq	%r13
	.seh_pushreg	%r13
	pushq	%r12
	.seh_pushreg	%r12
	pushq	%rbp
	.seh_pushreg	%rbp
	pushq	%rdi
	.seh_pushreg	%rdi
	pushq	%rsi
	.seh_pushreg	%rsi
	pushq	%rbx
	.seh_pushreg	%rbx
	subq	$80, %rsp
	.seh_stackalloc	80
	.seh_endprologue
	call	__main
	movl	$0, %ecx
	call	_time64
	movl	%eax, %ecx
	call	srand
	leaq	arr(%rip), %rsi
	leaq	800(%rsi), %rdi
	jmp	.L3
.L4:
	call	rand
	movl	%eax, (%rbx)
	testl	%eax, %eax
	je	.L4
.L8:
	cmpl	$0, 800(%rbx)
	jne	.L5
.L6:
	call	rand
	movl	%eax, 800(%rbx)
	testl	%eax, %eax
	je	.L6
.L5:
	addq	$4, %rsi
	cmpq	%rsi, %rdi
	je	.L7
.L3:
	movq	%rsi, %rbx
	cmpl	$0, (%rsi)
	je	.L4
	jmp	.L8
.L7:
	leaq	32(%rsp), %rbx
	leaq	72(%rsp), %rsi
	movq	%rbx, %rax
.L9:
	movl	$10, (%rax)
	addq	$4, %rax
	cmpq	%rax, %rsi
	jne	.L9
	call	_ZNSt6chrono3_V212system_clock3nowEv
	movq	%rax, %r14
	movl	36(%rsp), %ebp
	imull	800+arr(%rip), %ebp
	imull	804+arr(%rip), %ebp
	imull	808+arr(%rip), %ebp
	imull	812+arr(%rip), %ebp
	imull	816+arr(%rip), %ebp
	imull	820+arr(%rip), %ebp
	imull	824+arr(%rip), %ebp
	imull	828+arr(%rip), %ebp
	imull	832+arr(%rip), %ebp
	imull	836+arr(%rip), %ebp
	imull	840+arr(%rip), %ebp
	imull	844+arr(%rip), %ebp
	imull	848+arr(%rip), %ebp
	imull	852+arr(%rip), %ebp
	imull	856+arr(%rip), %ebp
	imull	860+arr(%rip), %ebp
	imull	864+arr(%rip), %ebp
	imull	868+arr(%rip), %ebp
	imull	872+arr(%rip), %ebp
	imull	876+arr(%rip), %ebp
	imull	880+arr(%rip), %ebp
	imull	884+arr(%rip), %ebp
	imull	888+arr(%rip), %ebp
	imull	892+arr(%rip), %ebp
	movl	40(%rsp), %edi
	imull	1600+arr(%rip), %edi
	imull	1604+arr(%rip), %edi
	imull	1608+arr(%rip), %edi
	imull	1612+arr(%rip), %edi
	imull	1616+arr(%rip), %edi
	imull	1620+arr(%rip), %edi
	imull	1624+arr(%rip), %edi
	imull	1628+arr(%rip), %edi
	imull	1632+arr(%rip), %edi
	imull	1636+arr(%rip), %edi
	imull	1640+arr(%rip), %edi
	imull	1644+arr(%rip), %edi
	imull	1648+arr(%rip), %edi
	imull	1652+arr(%rip), %edi
	imull	1656+arr(%rip), %edi
	imull	1660+arr(%rip), %edi
	imull	1664+arr(%rip), %edi
	imull	1668+arr(%rip), %edi
	imull	1672+arr(%rip), %edi
	imull	1676+arr(%rip), %edi
	imull	1680+arr(%rip), %edi
	imull	1684+arr(%rip), %edi
	imull	1688+arr(%rip), %edi
	imull	1692+arr(%rip), %edi
	movl	44(%rsp), %r11d
	imull	2400+arr(%rip), %r11d
	imull	2404+arr(%rip), %r11d
	imull	2408+arr(%rip), %r11d
	imull	2412+arr(%rip), %r11d
	imull	2416+arr(%rip), %r11d
	imull	2420+arr(%rip), %r11d
	imull	2424+arr(%rip), %r11d
	imull	2428+arr(%rip), %r11d
	imull	2432+arr(%rip), %r11d
	imull	2436+arr(%rip), %r11d
	imull	2440+arr(%rip), %r11d
	imull	2444+arr(%rip), %r11d
	imull	2448+arr(%rip), %r11d
	imull	2452+arr(%rip), %r11d
	imull	2456+arr(%rip), %r11d
	imull	2460+arr(%rip), %r11d
	imull	2464+arr(%rip), %r11d
	imull	2468+arr(%rip), %r11d
	imull	2472+arr(%rip), %r11d
	imull	2476+arr(%rip), %r11d
	imull	2480+arr(%rip), %r11d
	imull	2484+arr(%rip), %r11d
	imull	2488+arr(%rip), %r11d
	imull	2492+arr(%rip), %r11d
	movl	48(%rsp), %r10d
	imull	3200+arr(%rip), %r10d
	imull	3204+arr(%rip), %r10d
	imull	3208+arr(%rip), %r10d
	imull	3212+arr(%rip), %r10d
	imull	3216+arr(%rip), %r10d
	imull	3220+arr(%rip), %r10d
	imull	3224+arr(%rip), %r10d
	imull	3228+arr(%rip), %r10d
	imull	3232+arr(%rip), %r10d
	imull	3236+arr(%rip), %r10d
	imull	3240+arr(%rip), %r10d
	imull	3244+arr(%rip), %r10d
	imull	3248+arr(%rip), %r10d
	imull	3252+arr(%rip), %r10d
	imull	3256+arr(%rip), %r10d
	imull	3260+arr(%rip), %r10d
	imull	3264+arr(%rip), %r10d
	imull	3268+arr(%rip), %r10d
	imull	3272+arr(%rip), %r10d
	imull	3276+arr(%rip), %r10d
	imull	3280+arr(%rip), %r10d
	imull	3284+arr(%rip), %r10d
	imull	3288+arr(%rip), %r10d
	imull	3292+arr(%rip), %r10d
	movl	52(%rsp), %r9d
	imull	4000+arr(%rip), %r9d
	imull	4004+arr(%rip), %r9d
	imull	4008+arr(%rip), %r9d
	imull	4012+arr(%rip), %r9d
	imull	4016+arr(%rip), %r9d
	imull	4020+arr(%rip), %r9d
	imull	4024+arr(%rip), %r9d
	imull	4028+arr(%rip), %r9d
	imull	4032+arr(%rip), %r9d
	imull	4036+arr(%rip), %r9d
	imull	4040+arr(%rip), %r9d
	imull	4044+arr(%rip), %r9d
	imull	4048+arr(%rip), %r9d
	imull	4052+arr(%rip), %r9d
	imull	4056+arr(%rip), %r9d
	imull	4060+arr(%rip), %r9d
	imull	4064+arr(%rip), %r9d
	imull	4068+arr(%rip), %r9d
	imull	4072+arr(%rip), %r9d
	imull	4076+arr(%rip), %r9d
	imull	4080+arr(%rip), %r9d
	imull	4084+arr(%rip), %r9d
	imull	4088+arr(%rip), %r9d
	imull	4092+arr(%rip), %r9d
	movl	56(%rsp), %r8d
	imull	4800+arr(%rip), %r8d
	imull	4804+arr(%rip), %r8d
	imull	4808+arr(%rip), %r8d
	imull	4812+arr(%rip), %r8d
	imull	4816+arr(%rip), %r8d
	imull	4820+arr(%rip), %r8d
	imull	4824+arr(%rip), %r8d
	imull	4828+arr(%rip), %r8d
	imull	4832+arr(%rip), %r8d
	imull	4836+arr(%rip), %r8d
	imull	4840+arr(%rip), %r8d
	imull	4844+arr(%rip), %r8d
	imull	4848+arr(%rip), %r8d
	imull	4852+arr(%rip), %r8d
	imull	4856+arr(%rip), %r8d
	imull	4860+arr(%rip), %r8d
	imull	4864+arr(%rip), %r8d
	imull	4868+arr(%rip), %r8d
	imull	4872+arr(%rip), %r8d
	imull	4876+arr(%rip), %r8d
	imull	4880+arr(%rip), %r8d
	imull	4884+arr(%rip), %r8d
	imull	4888+arr(%rip), %r8d
	imull	4892+arr(%rip), %r8d
	movl	60(%rsp), %ecx
	imull	5600+arr(%rip), %ecx
	imull	5604+arr(%rip), %ecx
	imull	5608+arr(%rip), %ecx
	imull	5612+arr(%rip), %ecx
	imull	5616+arr(%rip), %ecx
	imull	5620+arr(%rip), %ecx
	imull	5624+arr(%rip), %ecx
	imull	5628+arr(%rip), %ecx
	imull	5632+arr(%rip), %ecx
	imull	5636+arr(%rip), %ecx
	imull	5640+arr(%rip), %ecx
	imull	5644+arr(%rip), %ecx
	imull	5648+arr(%rip), %ecx
	imull	5652+arr(%rip), %ecx
	imull	5656+arr(%rip), %ecx
	imull	5660+arr(%rip), %ecx
	imull	5664+arr(%rip), %ecx
	imull	5668+arr(%rip), %ecx
	imull	5672+arr(%rip), %ecx
	imull	5676+arr(%rip), %ecx
	imull	5680+arr(%rip), %ecx
	imull	5684+arr(%rip), %ecx
	imull	5688+arr(%rip), %ecx
	imull	5692+arr(%rip), %ecx
	movl	64(%rsp), %edx
	imull	6400+arr(%rip), %edx
	imull	6404+arr(%rip), %edx
	imull	6408+arr(%rip), %edx
	imull	6412+arr(%rip), %edx
	imull	6416+arr(%rip), %edx
	imull	6420+arr(%rip), %edx
	imull	6424+arr(%rip), %edx
	imull	6428+arr(%rip), %edx
	imull	6432+arr(%rip), %edx
	imull	6436+arr(%rip), %edx
	imull	6440+arr(%rip), %edx
	imull	6444+arr(%rip), %edx
	imull	6448+arr(%rip), %edx
	imull	6452+arr(%rip), %edx
	imull	6456+arr(%rip), %edx
	imull	6460+arr(%rip), %edx
	imull	6464+arr(%rip), %edx
	imull	6468+arr(%rip), %edx
	imull	6472+arr(%rip), %edx
	imull	6476+arr(%rip), %edx
	imull	6480+arr(%rip), %edx
	imull	6484+arr(%rip), %edx
	imull	6488+arr(%rip), %edx
	imull	6492+arr(%rip), %edx
	movl	68(%rsp), %eax
	imull	7200+arr(%rip), %eax
	imull	7204+arr(%rip), %eax
	imull	7208+arr(%rip), %eax
	imull	7212+arr(%rip), %eax
	imull	7216+arr(%rip), %eax
	imull	7220+arr(%rip), %eax
	imull	7224+arr(%rip), %eax
	imull	7228+arr(%rip), %eax
	imull	7232+arr(%rip), %eax
	imull	7236+arr(%rip), %eax
	imull	7240+arr(%rip), %eax
	imull	7244+arr(%rip), %eax
	imull	7248+arr(%rip), %eax
	imull	7252+arr(%rip), %eax
	imull	7256+arr(%rip), %eax
	imull	7260+arr(%rip), %eax
	imull	7264+arr(%rip), %eax
	imull	7268+arr(%rip), %eax
	imull	7272+arr(%rip), %eax
	imull	7276+arr(%rip), %eax
	imull	7280+arr(%rip), %eax
	imull	7284+arr(%rip), %eax
	imull	7288+arr(%rip), %eax
	imull	7292+arr(%rip), %eax
	movl	32(%rsp), %r12d
	imull	arr(%rip), %r12d
	imull	4+arr(%rip), %r12d
	imull	8+arr(%rip), %r12d
	imull	12+arr(%rip), %r12d
	imull	16+arr(%rip), %r12d
	imull	20+arr(%rip), %r12d
	imull	24+arr(%rip), %r12d
	imull	28+arr(%rip), %r12d
	imull	32+arr(%rip), %r12d
	imull	36+arr(%rip), %r12d
	imull	40+arr(%rip), %r12d
	imull	44+arr(%rip), %r12d
	imull	48+arr(%rip), %r12d
	imull	52+arr(%rip), %r12d
	imull	56+arr(%rip), %r12d
	imull	60+arr(%rip), %r12d
	imull	64+arr(%rip), %r12d
	imull	68+arr(%rip), %r12d
	imull	72+arr(%rip), %r12d
	imull	76+arr(%rip), %r12d
	imull	80+arr(%rip), %r12d
	imull	84+arr(%rip), %r12d
	imull	88+arr(%rip), %r12d
	imull	92+arr(%rip), %r12d
	imull	96+arr(%rip), %r12d
	imull	896+arr(%rip), %ebp
	imull	1696+arr(%rip), %edi
	imull	2496+arr(%rip), %r11d
	imull	3296+arr(%rip), %r10d
	imull	4096+arr(%rip), %r9d
	imull	4896+arr(%rip), %r8d
	imull	5696+arr(%rip), %ecx
	imull	6496+arr(%rip), %edx
	imull	7296+arr(%rip), %eax
	imull	900+arr(%rip), %ebp
	imull	904+arr(%rip), %ebp
	imull	908+arr(%rip), %ebp
	imull	912+arr(%rip), %ebp
	imull	916+arr(%rip), %ebp
	imull	920+arr(%rip), %ebp
	imull	924+arr(%rip), %ebp
	imull	928+arr(%rip), %ebp
	imull	932+arr(%rip), %ebp
	imull	936+arr(%rip), %ebp
	imull	940+arr(%rip), %ebp
	imull	944+arr(%rip), %ebp
	imull	948+arr(%rip), %ebp
	imull	952+arr(%rip), %ebp
	imull	956+arr(%rip), %ebp
	imull	960+arr(%rip), %ebp
	imull	964+arr(%rip), %ebp
	imull	968+arr(%rip), %ebp
	imull	972+arr(%rip), %ebp
	imull	976+arr(%rip), %ebp
	imull	980+arr(%rip), %ebp
	imull	984+arr(%rip), %ebp
	imull	988+arr(%rip), %ebp
	imull	992+arr(%rip), %ebp
	imull	1700+arr(%rip), %edi
	imull	1704+arr(%rip), %edi
	imull	1708+arr(%rip), %edi
	imull	1712+arr(%rip), %edi
	imull	1716+arr(%rip), %edi
	imull	1720+arr(%rip), %edi
	imull	1724+arr(%rip), %edi
	imull	1728+arr(%rip), %edi
	imull	1732+arr(%rip), %edi
	imull	1736+arr(%rip), %edi
	imull	1740+arr(%rip), %edi
	imull	1744+arr(%rip), %edi
	imull	1748+arr(%rip), %edi
	imull	1752+arr(%rip), %edi
	imull	1756+arr(%rip), %edi
	imull	1760+arr(%rip), %edi
	imull	1764+arr(%rip), %edi
	imull	1768+arr(%rip), %edi
	imull	1772+arr(%rip), %edi
	imull	1776+arr(%rip), %edi
	imull	1780+arr(%rip), %edi
	imull	1784+arr(%rip), %edi
	imull	1788+arr(%rip), %edi
	imull	1792+arr(%rip), %edi
	imull	2500+arr(%rip), %r11d
	imull	2504+arr(%rip), %r11d
	imull	2508+arr(%rip), %r11d
	imull	2512+arr(%rip), %r11d
	imull	2516+arr(%rip), %r11d
	imull	2520+arr(%rip), %r11d
	imull	2524+arr(%rip), %r11d
	imull	2528+arr(%rip), %r11d
	imull	2532+arr(%rip), %r11d
	imull	2536+arr(%rip), %r11d
	imull	2540+arr(%rip), %r11d
	imull	2544+arr(%rip), %r11d
	imull	2548+arr(%rip), %r11d
	imull	2552+arr(%rip), %r11d
	imull	2556+arr(%rip), %r11d
	imull	2560+arr(%rip), %r11d
	imull	2564+arr(%rip), %r11d
	imull	2568+arr(%rip), %r11d
	imull	2572+arr(%rip), %r11d
	imull	2576+arr(%rip), %r11d
	imull	2580+arr(%rip), %r11d
	imull	2584+arr(%rip), %r11d
	imull	2588+arr(%rip), %r11d
	imull	2592+arr(%rip), %r11d
	imull	3300+arr(%rip), %r10d
	imull	3304+arr(%rip), %r10d
	imull	3308+arr(%rip), %r10d
	imull	3312+arr(%rip), %r10d
	imull	3316+arr(%rip), %r10d
	imull	3320+arr(%rip), %r10d
	imull	3324+arr(%rip), %r10d
	imull	3328+arr(%rip), %r10d
	imull	3332+arr(%rip), %r10d
	imull	3336+arr(%rip), %r10d
	imull	3340+arr(%rip), %r10d
	imull	3344+arr(%rip), %r10d
	imull	3348+arr(%rip), %r10d
	imull	3352+arr(%rip), %r10d
	imull	3356+arr(%rip), %r10d
	imull	3360+arr(%rip), %r10d
	imull	3364+arr(%rip), %r10d
	imull	3368+arr(%rip), %r10d
	imull	3372+arr(%rip), %r10d
	imull	3376+arr(%rip), %r10d
	imull	3380+arr(%rip), %r10d
	imull	3384+arr(%rip), %r10d
	imull	3388+arr(%rip), %r10d
	imull	3392+arr(%rip), %r10d
	imull	4100+arr(%rip), %r9d
	imull	4104+arr(%rip), %r9d
	imull	4108+arr(%rip), %r9d
	imull	4112+arr(%rip), %r9d
	imull	4116+arr(%rip), %r9d
	imull	4120+arr(%rip), %r9d
	imull	4124+arr(%rip), %r9d
	imull	4128+arr(%rip), %r9d
	imull	4132+arr(%rip), %r9d
	imull	4136+arr(%rip), %r9d
	imull	4140+arr(%rip), %r9d
	imull	4144+arr(%rip), %r9d
	imull	4148+arr(%rip), %r9d
	imull	4152+arr(%rip), %r9d
	imull	4156+arr(%rip), %r9d
	imull	4160+arr(%rip), %r9d
	imull	4164+arr(%rip), %r9d
	imull	4168+arr(%rip), %r9d
	imull	4172+arr(%rip), %r9d
	imull	4176+arr(%rip), %r9d
	imull	4180+arr(%rip), %r9d
	imull	4184+arr(%rip), %r9d
	imull	4188+arr(%rip), %r9d
	imull	4192+arr(%rip), %r9d
	imull	4900+arr(%rip), %r8d
	imull	4904+arr(%rip), %r8d
	imull	4908+arr(%rip), %r8d
	imull	4912+arr(%rip), %r8d
	imull	4916+arr(%rip), %r8d
	imull	4920+arr(%rip), %r8d
	imull	4924+arr(%rip), %r8d
	imull	4928+arr(%rip), %r8d
	imull	4932+arr(%rip), %r8d
	imull	4936+arr(%rip), %r8d
	imull	4940+arr(%rip), %r8d
	imull	4944+arr(%rip), %r8d
	imull	4948+arr(%rip), %r8d
	imull	4952+arr(%rip), %r8d
	imull	4956+arr(%rip), %r8d
	imull	4960+arr(%rip), %r8d
	imull	4964+arr(%rip), %r8d
	imull	4968+arr(%rip), %r8d
	imull	4972+arr(%rip), %r8d
	imull	4976+arr(%rip), %r8d
	imull	4980+arr(%rip), %r8d
	imull	4984+arr(%rip), %r8d
	imull	4988+arr(%rip), %r8d
	imull	4992+arr(%rip), %r8d
	imull	5700+arr(%rip), %ecx
	imull	5704+arr(%rip), %ecx
	imull	5708+arr(%rip), %ecx
	imull	5712+arr(%rip), %ecx
	imull	5716+arr(%rip), %ecx
	imull	5720+arr(%rip), %ecx
	imull	5724+arr(%rip), %ecx
	imull	5728+arr(%rip), %ecx
	imull	5732+arr(%rip), %ecx
	imull	5736+arr(%rip), %ecx
	imull	5740+arr(%rip), %ecx
	imull	5744+arr(%rip), %ecx
	imull	5748+arr(%rip), %ecx
	imull	5752+arr(%rip), %ecx
	imull	5756+arr(%rip), %ecx
	imull	5760+arr(%rip), %ecx
	imull	5764+arr(%rip), %ecx
	imull	5768+arr(%rip), %ecx
	imull	5772+arr(%rip), %ecx
	imull	5776+arr(%rip), %ecx
	imull	5780+arr(%rip), %ecx
	imull	5784+arr(%rip), %ecx
	imull	5788+arr(%rip), %ecx
	imull	5792+arr(%rip), %ecx
	imull	6500+arr(%rip), %edx
	imull	6504+arr(%rip), %edx
	imull	6508+arr(%rip), %edx
	imull	6512+arr(%rip), %edx
	imull	6516+arr(%rip), %edx
	imull	6520+arr(%rip), %edx
	imull	6524+arr(%rip), %edx
	imull	6528+arr(%rip), %edx
	imull	6532+arr(%rip), %edx
	imull	6536+arr(%rip), %edx
	imull	6540+arr(%rip), %edx
	imull	6544+arr(%rip), %edx
	imull	6548+arr(%rip), %edx
	imull	6552+arr(%rip), %edx
	imull	6556+arr(%rip), %edx
	imull	6560+arr(%rip), %edx
	imull	6564+arr(%rip), %edx
	imull	6568+arr(%rip), %edx
	imull	6572+arr(%rip), %edx
	imull	6576+arr(%rip), %edx
	imull	6580+arr(%rip), %edx
	imull	6584+arr(%rip), %edx
	imull	6588+arr(%rip), %edx
	imull	6592+arr(%rip), %edx
	imull	7300+arr(%rip), %eax
	imull	7304+arr(%rip), %eax
	imull	7308+arr(%rip), %eax
	imull	7312+arr(%rip), %eax
	imull	7316+arr(%rip), %eax
	imull	7320+arr(%rip), %eax
	imull	7324+arr(%rip), %eax
	imull	7328+arr(%rip), %eax
	imull	7332+arr(%rip), %eax
	imull	7336+arr(%rip), %eax
	imull	7340+arr(%rip), %eax
	imull	7344+arr(%rip), %eax
	imull	7348+arr(%rip), %eax
	imull	7352+arr(%rip), %eax
	imull	7356+arr(%rip), %eax
	imull	7360+arr(%rip), %eax
	imull	7364+arr(%rip), %eax
	imull	7368+arr(%rip), %eax
	imull	7372+arr(%rip), %eax
	imull	7376+arr(%rip), %eax
	imull	7380+arr(%rip), %eax
	imull	7384+arr(%rip), %eax
	imull	7388+arr(%rip), %eax
	imull	7392+arr(%rip), %eax
	imull	100+arr(%rip), %r12d
	imull	104+arr(%rip), %r12d
	imull	108+arr(%rip), %r12d
	imull	112+arr(%rip), %r12d
	imull	116+arr(%rip), %r12d
	imull	120+arr(%rip), %r12d
	imull	124+arr(%rip), %r12d
	imull	128+arr(%rip), %r12d
	imull	132+arr(%rip), %r12d
	imull	136+arr(%rip), %r12d
	imull	140+arr(%rip), %r12d
	imull	144+arr(%rip), %r12d
	imull	148+arr(%rip), %r12d
	imull	152+arr(%rip), %r12d
	imull	156+arr(%rip), %r12d
	imull	160+arr(%rip), %r12d
	imull	164+arr(%rip), %r12d
	imull	168+arr(%rip), %r12d
	imull	172+arr(%rip), %r12d
	imull	176+arr(%rip), %r12d
	imull	180+arr(%rip), %r12d
	imull	184+arr(%rip), %r12d
	imull	188+arr(%rip), %r12d
	imull	192+arr(%rip), %r12d
	imull	196+arr(%rip), %r12d
	imull	996+arr(%rip), %ebp
	imull	1796+arr(%rip), %edi
	imull	2596+arr(%rip), %r11d
	imull	3396+arr(%rip), %r10d
	imull	4196+arr(%rip), %r9d
	imull	4996+arr(%rip), %r8d
	imull	5796+arr(%rip), %ecx
	imull	6596+arr(%rip), %edx
	imull	7396+arr(%rip), %eax
	imull	1000+arr(%rip), %ebp
	imull	1004+arr(%rip), %ebp
	imull	1008+arr(%rip), %ebp
	imull	1012+arr(%rip), %ebp
	imull	1016+arr(%rip), %ebp
	imull	1020+arr(%rip), %ebp
	imull	1024+arr(%rip), %ebp
	imull	1028+arr(%rip), %ebp
	imull	1032+arr(%rip), %ebp
	imull	1036+arr(%rip), %ebp
	imull	1040+arr(%rip), %ebp
	imull	1044+arr(%rip), %ebp
	imull	1048+arr(%rip), %ebp
	imull	1052+arr(%rip), %ebp
	imull	1056+arr(%rip), %ebp
	imull	1060+arr(%rip), %ebp
	imull	1064+arr(%rip), %ebp
	imull	1068+arr(%rip), %ebp
	imull	1072+arr(%rip), %ebp
	imull	1076+arr(%rip), %ebp
	imull	1080+arr(%rip), %ebp
	imull	1084+arr(%rip), %ebp
	imull	1088+arr(%rip), %ebp
	imull	1092+arr(%rip), %ebp
	imull	1800+arr(%rip), %edi
	imull	1804+arr(%rip), %edi
	imull	1808+arr(%rip), %edi
	imull	1812+arr(%rip), %edi
	imull	1816+arr(%rip), %edi
	imull	1820+arr(%rip), %edi
	imull	1824+arr(%rip), %edi
	imull	1828+arr(%rip), %edi
	imull	1832+arr(%rip), %edi
	imull	1836+arr(%rip), %edi
	imull	1840+arr(%rip), %edi
	imull	1844+arr(%rip), %edi
	imull	1848+arr(%rip), %edi
	imull	1852+arr(%rip), %edi
	imull	1856+arr(%rip), %edi
	imull	1860+arr(%rip), %edi
	imull	1864+arr(%rip), %edi
	imull	1868+arr(%rip), %edi
	imull	1872+arr(%rip), %edi
	imull	1876+arr(%rip), %edi
	imull	1880+arr(%rip), %edi
	imull	1884+arr(%rip), %edi
	imull	1888+arr(%rip), %edi
	imull	1892+arr(%rip), %edi
	imull	2600+arr(%rip), %r11d
	imull	2604+arr(%rip), %r11d
	imull	2608+arr(%rip), %r11d
	imull	2612+arr(%rip), %r11d
	imull	2616+arr(%rip), %r11d
	imull	2620+arr(%rip), %r11d
	imull	2624+arr(%rip), %r11d
	imull	2628+arr(%rip), %r11d
	imull	2632+arr(%rip), %r11d
	imull	2636+arr(%rip), %r11d
	imull	2640+arr(%rip), %r11d
	imull	2644+arr(%rip), %r11d
	imull	2648+arr(%rip), %r11d
	imull	2652+arr(%rip), %r11d
	imull	2656+arr(%rip), %r11d
	imull	2660+arr(%rip), %r11d
	imull	2664+arr(%rip), %r11d
	imull	2668+arr(%rip), %r11d
	imull	2672+arr(%rip), %r11d
	imull	2676+arr(%rip), %r11d
	imull	2680+arr(%rip), %r11d
	imull	2684+arr(%rip), %r11d
	imull	2688+arr(%rip), %r11d
	imull	2692+arr(%rip), %r11d
	imull	3400+arr(%rip), %r10d
	imull	3404+arr(%rip), %r10d
	imull	3408+arr(%rip), %r10d
	imull	3412+arr(%rip), %r10d
	imull	3416+arr(%rip), %r10d
	imull	3420+arr(%rip), %r10d
	imull	3424+arr(%rip), %r10d
	imull	3428+arr(%rip), %r10d
	imull	3432+arr(%rip), %r10d
	imull	3436+arr(%rip), %r10d
	imull	3440+arr(%rip), %r10d
	imull	3444+arr(%rip), %r10d
	imull	3448+arr(%rip), %r10d
	imull	3452+arr(%rip), %r10d
	imull	3456+arr(%rip), %r10d
	imull	3460+arr(%rip), %r10d
	imull	3464+arr(%rip), %r10d
	imull	3468+arr(%rip), %r10d
	imull	3472+arr(%rip), %r10d
	imull	3476+arr(%rip), %r10d
	imull	3480+arr(%rip), %r10d
	imull	3484+arr(%rip), %r10d
	imull	3488+arr(%rip), %r10d
	imull	3492+arr(%rip), %r10d
	imull	4200+arr(%rip), %r9d
	imull	4204+arr(%rip), %r9d
	imull	4208+arr(%rip), %r9d
	imull	4212+arr(%rip), %r9d
	imull	4216+arr(%rip), %r9d
	imull	4220+arr(%rip), %r9d
	imull	4224+arr(%rip), %r9d
	imull	4228+arr(%rip), %r9d
	imull	4232+arr(%rip), %r9d
	imull	4236+arr(%rip), %r9d
	imull	4240+arr(%rip), %r9d
	imull	4244+arr(%rip), %r9d
	imull	4248+arr(%rip), %r9d
	imull	4252+arr(%rip), %r9d
	imull	4256+arr(%rip), %r9d
	imull	4260+arr(%rip), %r9d
	imull	4264+arr(%rip), %r9d
	imull	4268+arr(%rip), %r9d
	imull	4272+arr(%rip), %r9d
	imull	4276+arr(%rip), %r9d
	imull	4280+arr(%rip), %r9d
	imull	4284+arr(%rip), %r9d
	imull	4288+arr(%rip), %r9d
	imull	4292+arr(%rip), %r9d
	imull	5000+arr(%rip), %r8d
	imull	5004+arr(%rip), %r8d
	imull	5008+arr(%rip), %r8d
	imull	5012+arr(%rip), %r8d
	imull	5016+arr(%rip), %r8d
	imull	5020+arr(%rip), %r8d
	imull	5024+arr(%rip), %r8d
	imull	5028+arr(%rip), %r8d
	imull	5032+arr(%rip), %r8d
	imull	5036+arr(%rip), %r8d
	imull	5040+arr(%rip), %r8d
	imull	5044+arr(%rip), %r8d
	imull	5048+arr(%rip), %r8d
	imull	5052+arr(%rip), %r8d
	imull	5056+arr(%rip), %r8d
	imull	5060+arr(%rip), %r8d
	imull	5064+arr(%rip), %r8d
	imull	5068+arr(%rip), %r8d
	imull	5072+arr(%rip), %r8d
	imull	5076+arr(%rip), %r8d
	imull	5080+arr(%rip), %r8d
	imull	5084+arr(%rip), %r8d
	imull	5088+arr(%rip), %r8d
	imull	5092+arr(%rip), %r8d
	imull	5800+arr(%rip), %ecx
	imull	5804+arr(%rip), %ecx
	imull	5808+arr(%rip), %ecx
	imull	5812+arr(%rip), %ecx
	imull	5816+arr(%rip), %ecx
	imull	5820+arr(%rip), %ecx
	imull	5824+arr(%rip), %ecx
	imull	5828+arr(%rip), %ecx
	imull	5832+arr(%rip), %ecx
	imull	5836+arr(%rip), %ecx
	imull	5840+arr(%rip), %ecx
	imull	5844+arr(%rip), %ecx
	imull	5848+arr(%rip), %ecx
	imull	5852+arr(%rip), %ecx
	imull	5856+arr(%rip), %ecx
	imull	5860+arr(%rip), %ecx
	imull	5864+arr(%rip), %ecx
	imull	5868+arr(%rip), %ecx
	imull	5872+arr(%rip), %ecx
	imull	5876+arr(%rip), %ecx
	imull	5880+arr(%rip), %ecx
	imull	5884+arr(%rip), %ecx
	imull	5888+arr(%rip), %ecx
	imull	5892+arr(%rip), %ecx
	imull	6600+arr(%rip), %edx
	imull	6604+arr(%rip), %edx
	imull	6608+arr(%rip), %edx
	imull	6612+arr(%rip), %edx
	imull	6616+arr(%rip), %edx
	imull	6620+arr(%rip), %edx
	imull	6624+arr(%rip), %edx
	imull	6628+arr(%rip), %edx
	imull	6632+arr(%rip), %edx
	imull	6636+arr(%rip), %edx
	imull	6640+arr(%rip), %edx
	imull	6644+arr(%rip), %edx
	imull	6648+arr(%rip), %edx
	imull	6652+arr(%rip), %edx
	imull	6656+arr(%rip), %edx
	imull	6660+arr(%rip), %edx
	imull	6664+arr(%rip), %edx
	imull	6668+arr(%rip), %edx
	imull	6672+arr(%rip), %edx
	imull	6676+arr(%rip), %edx
	imull	6680+arr(%rip), %edx
	imull	6684+arr(%rip), %edx
	imull	6688+arr(%rip), %edx
	imull	6692+arr(%rip), %edx
	imull	7400+arr(%rip), %eax
	imull	7404+arr(%rip), %eax
	imull	7408+arr(%rip), %eax
	imull	7412+arr(%rip), %eax
	imull	7416+arr(%rip), %eax
	imull	7420+arr(%rip), %eax
	imull	7424+arr(%rip), %eax
	imull	7428+arr(%rip), %eax
	imull	7432+arr(%rip), %eax
	imull	7436+arr(%rip), %eax
	imull	7440+arr(%rip), %eax
	imull	7444+arr(%rip), %eax
	imull	7448+arr(%rip), %eax
	imull	7452+arr(%rip), %eax
	imull	7456+arr(%rip), %eax
	imull	7460+arr(%rip), %eax
	imull	7464+arr(%rip), %eax
	imull	7468+arr(%rip), %eax
	imull	7472+arr(%rip), %eax
	imull	7476+arr(%rip), %eax
	imull	7480+arr(%rip), %eax
	imull	7484+arr(%rip), %eax
	imull	7488+arr(%rip), %eax
	imull	7492+arr(%rip), %eax
	imull	200+arr(%rip), %r12d
	imull	204+arr(%rip), %r12d
	imull	208+arr(%rip), %r12d
	imull	212+arr(%rip), %r12d
	imull	216+arr(%rip), %r12d
	imull	220+arr(%rip), %r12d
	imull	224+arr(%rip), %r12d
	imull	228+arr(%rip), %r12d
	imull	232+arr(%rip), %r12d
	imull	236+arr(%rip), %r12d
	imull	240+arr(%rip), %r12d
	imull	244+arr(%rip), %r12d
	imull	248+arr(%rip), %r12d
	imull	252+arr(%rip), %r12d
	imull	256+arr(%rip), %r12d
	imull	260+arr(%rip), %r12d
	imull	264+arr(%rip), %r12d
	imull	268+arr(%rip), %r12d
	imull	272+arr(%rip), %r12d
	imull	276+arr(%rip), %r12d
	imull	280+arr(%rip), %r12d
	imull	284+arr(%rip), %r12d
	imull	288+arr(%rip), %r12d
	imull	292+arr(%rip), %r12d
	imull	296+arr(%rip), %r12d
	imull	1096+arr(%rip), %ebp
	imull	1896+arr(%rip), %edi
	imull	2696+arr(%rip), %r11d
	imull	3496+arr(%rip), %r10d
	imull	4296+arr(%rip), %r9d
	imull	5096+arr(%rip), %r8d
	imull	5896+arr(%rip), %ecx
	imull	6696+arr(%rip), %edx
	imull	7496+arr(%rip), %eax
	imull	1100+arr(%rip), %ebp
	imull	1104+arr(%rip), %ebp
	imull	1108+arr(%rip), %ebp
	imull	1112+arr(%rip), %ebp
	imull	1116+arr(%rip), %ebp
	imull	1120+arr(%rip), %ebp
	imull	1124+arr(%rip), %ebp
	imull	1128+arr(%rip), %ebp
	imull	1132+arr(%rip), %ebp
	imull	1136+arr(%rip), %ebp
	imull	1140+arr(%rip), %ebp
	imull	1144+arr(%rip), %ebp
	imull	1148+arr(%rip), %ebp
	imull	1152+arr(%rip), %ebp
	imull	1156+arr(%rip), %ebp
	imull	1160+arr(%rip), %ebp
	imull	1164+arr(%rip), %ebp
	imull	1168+arr(%rip), %ebp
	imull	1172+arr(%rip), %ebp
	imull	1176+arr(%rip), %ebp
	imull	1180+arr(%rip), %ebp
	imull	1184+arr(%rip), %ebp
	imull	1188+arr(%rip), %ebp
	imull	1192+arr(%rip), %ebp
	imull	1900+arr(%rip), %edi
	imull	1904+arr(%rip), %edi
	imull	1908+arr(%rip), %edi
	imull	1912+arr(%rip), %edi
	imull	1916+arr(%rip), %edi
	imull	1920+arr(%rip), %edi
	imull	1924+arr(%rip), %edi
	imull	1928+arr(%rip), %edi
	imull	1932+arr(%rip), %edi
	imull	1936+arr(%rip), %edi
	imull	1940+arr(%rip), %edi
	imull	1944+arr(%rip), %edi
	imull	1948+arr(%rip), %edi
	imull	1952+arr(%rip), %edi
	imull	1956+arr(%rip), %edi
	imull	1960+arr(%rip), %edi
	imull	1964+arr(%rip), %edi
	imull	1968+arr(%rip), %edi
	imull	1972+arr(%rip), %edi
	imull	1976+arr(%rip), %edi
	imull	1980+arr(%rip), %edi
	imull	1984+arr(%rip), %edi
	imull	1988+arr(%rip), %edi
	imull	1992+arr(%rip), %edi
	imull	2700+arr(%rip), %r11d
	imull	2704+arr(%rip), %r11d
	imull	2708+arr(%rip), %r11d
	imull	2712+arr(%rip), %r11d
	imull	2716+arr(%rip), %r11d
	imull	2720+arr(%rip), %r11d
	imull	2724+arr(%rip), %r11d
	imull	2728+arr(%rip), %r11d
	imull	2732+arr(%rip), %r11d
	imull	2736+arr(%rip), %r11d
	imull	2740+arr(%rip), %r11d
	imull	2744+arr(%rip), %r11d
	imull	2748+arr(%rip), %r11d
	imull	2752+arr(%rip), %r11d
	imull	2756+arr(%rip), %r11d
	imull	2760+arr(%rip), %r11d
	imull	2764+arr(%rip), %r11d
	imull	2768+arr(%rip), %r11d
	imull	2772+arr(%rip), %r11d
	imull	2776+arr(%rip), %r11d
	imull	2780+arr(%rip), %r11d
	imull	2784+arr(%rip), %r11d
	imull	2788+arr(%rip), %r11d
	imull	2792+arr(%rip), %r11d
	imull	3500+arr(%rip), %r10d
	imull	3504+arr(%rip), %r10d
	imull	3508+arr(%rip), %r10d
	imull	3512+arr(%rip), %r10d
	imull	3516+arr(%rip), %r10d
	imull	3520+arr(%rip), %r10d
	imull	3524+arr(%rip), %r10d
	imull	3528+arr(%rip), %r10d
	imull	3532+arr(%rip), %r10d
	imull	3536+arr(%rip), %r10d
	imull	3540+arr(%rip), %r10d
	imull	3544+arr(%rip), %r10d
	imull	3548+arr(%rip), %r10d
	imull	3552+arr(%rip), %r10d
	imull	3556+arr(%rip), %r10d
	imull	3560+arr(%rip), %r10d
	imull	3564+arr(%rip), %r10d
	imull	3568+arr(%rip), %r10d
	imull	3572+arr(%rip), %r10d
	imull	3576+arr(%rip), %r10d
	imull	3580+arr(%rip), %r10d
	imull	3584+arr(%rip), %r10d
	imull	3588+arr(%rip), %r10d
	imull	3592+arr(%rip), %r10d
	imull	4300+arr(%rip), %r9d
	imull	4304+arr(%rip), %r9d
	imull	4308+arr(%rip), %r9d
	imull	4312+arr(%rip), %r9d
	imull	4316+arr(%rip), %r9d
	imull	4320+arr(%rip), %r9d
	imull	4324+arr(%rip), %r9d
	imull	4328+arr(%rip), %r9d
	imull	4332+arr(%rip), %r9d
	imull	4336+arr(%rip), %r9d
	imull	4340+arr(%rip), %r9d
	imull	4344+arr(%rip), %r9d
	imull	4348+arr(%rip), %r9d
	imull	4352+arr(%rip), %r9d
	imull	4356+arr(%rip), %r9d
	imull	4360+arr(%rip), %r9d
	imull	4364+arr(%rip), %r9d
	imull	4368+arr(%rip), %r9d
	imull	4372+arr(%rip), %r9d
	imull	4376+arr(%rip), %r9d
	imull	4380+arr(%rip), %r9d
	imull	4384+arr(%rip), %r9d
	imull	4388+arr(%rip), %r9d
	imull	4392+arr(%rip), %r9d
	imull	5100+arr(%rip), %r8d
	imull	5104+arr(%rip), %r8d
	imull	5108+arr(%rip), %r8d
	imull	5112+arr(%rip), %r8d
	imull	5116+arr(%rip), %r8d
	imull	5120+arr(%rip), %r8d
	imull	5124+arr(%rip), %r8d
	imull	5128+arr(%rip), %r8d
	imull	5132+arr(%rip), %r8d
	imull	5136+arr(%rip), %r8d
	imull	5140+arr(%rip), %r8d
	imull	5144+arr(%rip), %r8d
	imull	5148+arr(%rip), %r8d
	imull	5152+arr(%rip), %r8d
	imull	5156+arr(%rip), %r8d
	imull	5160+arr(%rip), %r8d
	imull	5164+arr(%rip), %r8d
	imull	5168+arr(%rip), %r8d
	imull	5172+arr(%rip), %r8d
	imull	5176+arr(%rip), %r8d
	imull	5180+arr(%rip), %r8d
	imull	5184+arr(%rip), %r8d
	imull	5188+arr(%rip), %r8d
	imull	5192+arr(%rip), %r8d
	imull	5900+arr(%rip), %ecx
	imull	5904+arr(%rip), %ecx
	imull	5908+arr(%rip), %ecx
	imull	5912+arr(%rip), %ecx
	imull	5916+arr(%rip), %ecx
	imull	5920+arr(%rip), %ecx
	imull	5924+arr(%rip), %ecx
	imull	5928+arr(%rip), %ecx
	imull	5932+arr(%rip), %ecx
	imull	5936+arr(%rip), %ecx
	imull	5940+arr(%rip), %ecx
	imull	5944+arr(%rip), %ecx
	imull	5948+arr(%rip), %ecx
	imull	5952+arr(%rip), %ecx
	imull	5956+arr(%rip), %ecx
	imull	5960+arr(%rip), %ecx
	imull	5964+arr(%rip), %ecx
	imull	5968+arr(%rip), %ecx
	imull	5972+arr(%rip), %ecx
	imull	5976+arr(%rip), %ecx
	imull	5980+arr(%rip), %ecx
	imull	5984+arr(%rip), %ecx
	imull	5988+arr(%rip), %ecx
	imull	5992+arr(%rip), %ecx
	imull	6700+arr(%rip), %edx
	imull	6704+arr(%rip), %edx
	imull	6708+arr(%rip), %edx
	imull	6712+arr(%rip), %edx
	imull	6716+arr(%rip), %edx
	imull	6720+arr(%rip), %edx
	imull	6724+arr(%rip), %edx
	imull	6728+arr(%rip), %edx
	imull	6732+arr(%rip), %edx
	imull	6736+arr(%rip), %edx
	imull	6740+arr(%rip), %edx
	imull	6744+arr(%rip), %edx
	imull	6748+arr(%rip), %edx
	imull	6752+arr(%rip), %edx
	imull	6756+arr(%rip), %edx
	imull	6760+arr(%rip), %edx
	imull	6764+arr(%rip), %edx
	imull	6768+arr(%rip), %edx
	imull	6772+arr(%rip), %edx
	imull	6776+arr(%rip), %edx
	imull	6780+arr(%rip), %edx
	imull	6784+arr(%rip), %edx
	imull	6788+arr(%rip), %edx
	imull	6792+arr(%rip), %edx
	imull	7500+arr(%rip), %eax
	imull	7504+arr(%rip), %eax
	imull	7508+arr(%rip), %eax
	imull	7512+arr(%rip), %eax
	imull	7516+arr(%rip), %eax
	imull	7520+arr(%rip), %eax
	imull	7524+arr(%rip), %eax
	imull	7528+arr(%rip), %eax
	imull	7532+arr(%rip), %eax
	imull	7536+arr(%rip), %eax
	imull	7540+arr(%rip), %eax
	imull	7544+arr(%rip), %eax
	imull	7548+arr(%rip), %eax
	imull	7552+arr(%rip), %eax
	imull	7556+arr(%rip), %eax
	imull	7560+arr(%rip), %eax
	imull	7564+arr(%rip), %eax
	imull	7568+arr(%rip), %eax
	imull	7572+arr(%rip), %eax
	imull	7576+arr(%rip), %eax
	imull	7580+arr(%rip), %eax
	imull	7584+arr(%rip), %eax
	imull	7588+arr(%rip), %eax
	imull	7592+arr(%rip), %eax
	imull	300+arr(%rip), %r12d
	imull	304+arr(%rip), %r12d
	imull	308+arr(%rip), %r12d
	imull	312+arr(%rip), %r12d
	imull	316+arr(%rip), %r12d
	imull	320+arr(%rip), %r12d
	imull	324+arr(%rip), %r12d
	imull	328+arr(%rip), %r12d
	imull	332+arr(%rip), %r12d
	imull	336+arr(%rip), %r12d
	imull	340+arr(%rip), %r12d
	imull	344+arr(%rip), %r12d
	imull	348+arr(%rip), %r12d
	imull	352+arr(%rip), %r12d
	imull	356+arr(%rip), %r12d
	imull	360+arr(%rip), %r12d
	imull	364+arr(%rip), %r12d
	imull	368+arr(%rip), %r12d
	imull	372+arr(%rip), %r12d
	imull	376+arr(%rip), %r12d
	imull	380+arr(%rip), %r12d
	imull	384+arr(%rip), %r12d
	imull	388+arr(%rip), %r12d
	imull	392+arr(%rip), %r12d
	imull	396+arr(%rip), %r12d
	imull	1196+arr(%rip), %ebp
	imull	1996+arr(%rip), %edi
	imull	2796+arr(%rip), %r11d
	imull	3596+arr(%rip), %r10d
	imull	4396+arr(%rip), %r9d
	imull	5196+arr(%rip), %r8d
	imull	5996+arr(%rip), %ecx
	imull	6796+arr(%rip), %edx
	imull	7596+arr(%rip), %eax
	imull	1200+arr(%rip), %ebp
	imull	1204+arr(%rip), %ebp
	imull	1208+arr(%rip), %ebp
	imull	1212+arr(%rip), %ebp
	imull	1216+arr(%rip), %ebp
	imull	1220+arr(%rip), %ebp
	imull	1224+arr(%rip), %ebp
	imull	1228+arr(%rip), %ebp
	imull	1232+arr(%rip), %ebp
	imull	1236+arr(%rip), %ebp
	imull	1240+arr(%rip), %ebp
	imull	1244+arr(%rip), %ebp
	imull	1248+arr(%rip), %ebp
	imull	1252+arr(%rip), %ebp
	imull	1256+arr(%rip), %ebp
	imull	1260+arr(%rip), %ebp
	imull	1264+arr(%rip), %ebp
	imull	1268+arr(%rip), %ebp
	imull	1272+arr(%rip), %ebp
	imull	1276+arr(%rip), %ebp
	imull	1280+arr(%rip), %ebp
	imull	1284+arr(%rip), %ebp
	imull	1288+arr(%rip), %ebp
	imull	1292+arr(%rip), %ebp
	imull	2000+arr(%rip), %edi
	imull	2004+arr(%rip), %edi
	imull	2008+arr(%rip), %edi
	imull	2012+arr(%rip), %edi
	imull	2016+arr(%rip), %edi
	imull	2020+arr(%rip), %edi
	imull	2024+arr(%rip), %edi
	imull	2028+arr(%rip), %edi
	imull	2032+arr(%rip), %edi
	imull	2036+arr(%rip), %edi
	imull	2040+arr(%rip), %edi
	imull	2044+arr(%rip), %edi
	imull	2048+arr(%rip), %edi
	imull	2052+arr(%rip), %edi
	imull	2056+arr(%rip), %edi
	imull	2060+arr(%rip), %edi
	imull	2064+arr(%rip), %edi
	imull	2068+arr(%rip), %edi
	imull	2072+arr(%rip), %edi
	imull	2076+arr(%rip), %edi
	imull	2080+arr(%rip), %edi
	imull	2084+arr(%rip), %edi
	imull	2088+arr(%rip), %edi
	imull	2092+arr(%rip), %edi
	imull	2800+arr(%rip), %r11d
	imull	2804+arr(%rip), %r11d
	imull	2808+arr(%rip), %r11d
	imull	2812+arr(%rip), %r11d
	imull	2816+arr(%rip), %r11d
	imull	2820+arr(%rip), %r11d
	imull	2824+arr(%rip), %r11d
	imull	2828+arr(%rip), %r11d
	imull	2832+arr(%rip), %r11d
	imull	2836+arr(%rip), %r11d
	imull	2840+arr(%rip), %r11d
	imull	2844+arr(%rip), %r11d
	imull	2848+arr(%rip), %r11d
	imull	2852+arr(%rip), %r11d
	imull	2856+arr(%rip), %r11d
	imull	2860+arr(%rip), %r11d
	imull	2864+arr(%rip), %r11d
	imull	2868+arr(%rip), %r11d
	imull	2872+arr(%rip), %r11d
	imull	2876+arr(%rip), %r11d
	imull	2880+arr(%rip), %r11d
	imull	2884+arr(%rip), %r11d
	imull	2888+arr(%rip), %r11d
	imull	2892+arr(%rip), %r11d
	imull	3600+arr(%rip), %r10d
	imull	3604+arr(%rip), %r10d
	imull	3608+arr(%rip), %r10d
	imull	3612+arr(%rip), %r10d
	imull	3616+arr(%rip), %r10d
	imull	3620+arr(%rip), %r10d
	imull	3624+arr(%rip), %r10d
	imull	3628+arr(%rip), %r10d
	imull	3632+arr(%rip), %r10d
	imull	3636+arr(%rip), %r10d
	imull	3640+arr(%rip), %r10d
	imull	3644+arr(%rip), %r10d
	imull	3648+arr(%rip), %r10d
	imull	3652+arr(%rip), %r10d
	imull	3656+arr(%rip), %r10d
	imull	3660+arr(%rip), %r10d
	imull	3664+arr(%rip), %r10d
	imull	3668+arr(%rip), %r10d
	imull	3672+arr(%rip), %r10d
	imull	3676+arr(%rip), %r10d
	imull	3680+arr(%rip), %r10d
	imull	3684+arr(%rip), %r10d
	imull	3688+arr(%rip), %r10d
	imull	3692+arr(%rip), %r10d
	imull	4400+arr(%rip), %r9d
	imull	4404+arr(%rip), %r9d
	imull	4408+arr(%rip), %r9d
	imull	4412+arr(%rip), %r9d
	imull	4416+arr(%rip), %r9d
	imull	4420+arr(%rip), %r9d
	imull	4424+arr(%rip), %r9d
	imull	4428+arr(%rip), %r9d
	imull	4432+arr(%rip), %r9d
	imull	4436+arr(%rip), %r9d
	imull	4440+arr(%rip), %r9d
	imull	4444+arr(%rip), %r9d
	imull	4448+arr(%rip), %r9d
	imull	4452+arr(%rip), %r9d
	imull	4456+arr(%rip), %r9d
	imull	4460+arr(%rip), %r9d
	imull	4464+arr(%rip), %r9d
	imull	4468+arr(%rip), %r9d
	imull	4472+arr(%rip), %r9d
	imull	4476+arr(%rip), %r9d
	imull	4480+arr(%rip), %r9d
	imull	4484+arr(%rip), %r9d
	imull	4488+arr(%rip), %r9d
	imull	4492+arr(%rip), %r9d
	imull	5200+arr(%rip), %r8d
	imull	5204+arr(%rip), %r8d
	imull	5208+arr(%rip), %r8d
	imull	5212+arr(%rip), %r8d
	imull	5216+arr(%rip), %r8d
	imull	5220+arr(%rip), %r8d
	imull	5224+arr(%rip), %r8d
	imull	5228+arr(%rip), %r8d
	imull	5232+arr(%rip), %r8d
	imull	5236+arr(%rip), %r8d
	imull	5240+arr(%rip), %r8d
	imull	5244+arr(%rip), %r8d
	imull	5248+arr(%rip), %r8d
	imull	5252+arr(%rip), %r8d
	imull	5256+arr(%rip), %r8d
	imull	5260+arr(%rip), %r8d
	imull	5264+arr(%rip), %r8d
	imull	5268+arr(%rip), %r8d
	imull	5272+arr(%rip), %r8d
	imull	5276+arr(%rip), %r8d
	imull	5280+arr(%rip), %r8d
	imull	5284+arr(%rip), %r8d
	imull	5288+arr(%rip), %r8d
	imull	5292+arr(%rip), %r8d
	imull	6000+arr(%rip), %ecx
	imull	6004+arr(%rip), %ecx
	imull	6008+arr(%rip), %ecx
	imull	6012+arr(%rip), %ecx
	imull	6016+arr(%rip), %ecx
	imull	6020+arr(%rip), %ecx
	imull	6024+arr(%rip), %ecx
	imull	6028+arr(%rip), %ecx
	imull	6032+arr(%rip), %ecx
	imull	6036+arr(%rip), %ecx
	imull	6040+arr(%rip), %ecx
	imull	6044+arr(%rip), %ecx
	imull	6048+arr(%rip), %ecx
	imull	6052+arr(%rip), %ecx
	imull	6056+arr(%rip), %ecx
	imull	6060+arr(%rip), %ecx
	imull	6064+arr(%rip), %ecx
	imull	6068+arr(%rip), %ecx
	imull	6072+arr(%rip), %ecx
	imull	6076+arr(%rip), %ecx
	imull	6080+arr(%rip), %ecx
	imull	6084+arr(%rip), %ecx
	imull	6088+arr(%rip), %ecx
	imull	6092+arr(%rip), %ecx
	imull	6800+arr(%rip), %edx
	imull	6804+arr(%rip), %edx
	imull	6808+arr(%rip), %edx
	imull	6812+arr(%rip), %edx
	imull	6816+arr(%rip), %edx
	imull	6820+arr(%rip), %edx
	imull	6824+arr(%rip), %edx
	imull	6828+arr(%rip), %edx
	imull	6832+arr(%rip), %edx
	imull	6836+arr(%rip), %edx
	imull	6840+arr(%rip), %edx
	imull	6844+arr(%rip), %edx
	imull	6848+arr(%rip), %edx
	imull	6852+arr(%rip), %edx
	imull	6856+arr(%rip), %edx
	imull	6860+arr(%rip), %edx
	imull	6864+arr(%rip), %edx
	imull	6868+arr(%rip), %edx
	imull	6872+arr(%rip), %edx
	imull	6876+arr(%rip), %edx
	imull	6880+arr(%rip), %edx
	imull	6884+arr(%rip), %edx
	imull	6888+arr(%rip), %edx
	imull	6892+arr(%rip), %edx
	imull	7600+arr(%rip), %eax
	imull	7604+arr(%rip), %eax
	imull	7608+arr(%rip), %eax
	imull	7612+arr(%rip), %eax
	imull	7616+arr(%rip), %eax
	imull	7620+arr(%rip), %eax
	imull	7624+arr(%rip), %eax
	imull	7628+arr(%rip), %eax
	imull	7632+arr(%rip), %eax
	imull	7636+arr(%rip), %eax
	imull	7640+arr(%rip), %eax
	imull	7644+arr(%rip), %eax
	imull	7648+arr(%rip), %eax
	imull	7652+arr(%rip), %eax
	imull	7656+arr(%rip), %eax
	imull	7660+arr(%rip), %eax
	imull	7664+arr(%rip), %eax
	imull	7668+arr(%rip), %eax
	imull	7672+arr(%rip), %eax
	imull	7676+arr(%rip), %eax
	imull	7680+arr(%rip), %eax
	imull	7684+arr(%rip), %eax
	imull	7688+arr(%rip), %eax
	imull	7692+arr(%rip), %eax
	imull	400+arr(%rip), %r12d
	imull	404+arr(%rip), %r12d
	imull	408+arr(%rip), %r12d
	imull	412+arr(%rip), %r12d
	imull	416+arr(%rip), %r12d
	imull	420+arr(%rip), %r12d
	imull	424+arr(%rip), %r12d
	imull	428+arr(%rip), %r12d
	imull	432+arr(%rip), %r12d
	imull	436+arr(%rip), %r12d
	imull	440+arr(%rip), %r12d
	imull	444+arr(%rip), %r12d
	imull	448+arr(%rip), %r12d
	imull	452+arr(%rip), %r12d
	imull	456+arr(%rip), %r12d
	imull	460+arr(%rip), %r12d
	imull	464+arr(%rip), %r12d
	imull	468+arr(%rip), %r12d
	imull	472+arr(%rip), %r12d
	imull	476+arr(%rip), %r12d
	imull	480+arr(%rip), %r12d
	imull	484+arr(%rip), %r12d
	imull	488+arr(%rip), %r12d
	imull	492+arr(%rip), %r12d
	imull	496+arr(%rip), %r12d
	imull	1296+arr(%rip), %ebp
	imull	2096+arr(%rip), %edi
	imull	2896+arr(%rip), %r11d
	imull	3696+arr(%rip), %r10d
	imull	4496+arr(%rip), %r9d
	imull	5296+arr(%rip), %r8d
	imull	6096+arr(%rip), %ecx
	imull	6896+arr(%rip), %edx
	imull	7696+arr(%rip), %eax
	imull	1300+arr(%rip), %ebp
	imull	1304+arr(%rip), %ebp
	imull	1308+arr(%rip), %ebp
	imull	1312+arr(%rip), %ebp
	imull	1316+arr(%rip), %ebp
	imull	1320+arr(%rip), %ebp
	imull	1324+arr(%rip), %ebp
	imull	1328+arr(%rip), %ebp
	imull	1332+arr(%rip), %ebp
	imull	1336+arr(%rip), %ebp
	imull	1340+arr(%rip), %ebp
	imull	1344+arr(%rip), %ebp
	imull	1348+arr(%rip), %ebp
	imull	1352+arr(%rip), %ebp
	imull	1356+arr(%rip), %ebp
	imull	1360+arr(%rip), %ebp
	imull	1364+arr(%rip), %ebp
	imull	1368+arr(%rip), %ebp
	imull	1372+arr(%rip), %ebp
	imull	1376+arr(%rip), %ebp
	imull	1380+arr(%rip), %ebp
	imull	1384+arr(%rip), %ebp
	imull	1388+arr(%rip), %ebp
	imull	1392+arr(%rip), %ebp
	imull	2100+arr(%rip), %edi
	imull	2104+arr(%rip), %edi
	imull	2108+arr(%rip), %edi
	imull	2112+arr(%rip), %edi
	imull	2116+arr(%rip), %edi
	imull	2120+arr(%rip), %edi
	imull	2124+arr(%rip), %edi
	imull	2128+arr(%rip), %edi
	imull	2132+arr(%rip), %edi
	imull	2136+arr(%rip), %edi
	imull	2140+arr(%rip), %edi
	imull	2144+arr(%rip), %edi
	imull	2148+arr(%rip), %edi
	imull	2152+arr(%rip), %edi
	imull	2156+arr(%rip), %edi
	imull	2160+arr(%rip), %edi
	imull	2164+arr(%rip), %edi
	imull	2168+arr(%rip), %edi
	imull	2172+arr(%rip), %edi
	imull	2176+arr(%rip), %edi
	imull	2180+arr(%rip), %edi
	imull	2184+arr(%rip), %edi
	imull	2188+arr(%rip), %edi
	imull	2192+arr(%rip), %edi
	imull	2900+arr(%rip), %r11d
	imull	2904+arr(%rip), %r11d
	imull	2908+arr(%rip), %r11d
	imull	2912+arr(%rip), %r11d
	imull	2916+arr(%rip), %r11d
	imull	2920+arr(%rip), %r11d
	imull	2924+arr(%rip), %r11d
	imull	2928+arr(%rip), %r11d
	imull	2932+arr(%rip), %r11d
	imull	2936+arr(%rip), %r11d
	imull	2940+arr(%rip), %r11d
	imull	2944+arr(%rip), %r11d
	imull	2948+arr(%rip), %r11d
	imull	2952+arr(%rip), %r11d
	imull	2956+arr(%rip), %r11d
	imull	2960+arr(%rip), %r11d
	imull	2964+arr(%rip), %r11d
	imull	2968+arr(%rip), %r11d
	imull	2972+arr(%rip), %r11d
	imull	2976+arr(%rip), %r11d
	imull	2980+arr(%rip), %r11d
	imull	2984+arr(%rip), %r11d
	imull	2988+arr(%rip), %r11d
	imull	2992+arr(%rip), %r11d
	imull	3700+arr(%rip), %r10d
	imull	3704+arr(%rip), %r10d
	imull	3708+arr(%rip), %r10d
	imull	3712+arr(%rip), %r10d
	imull	3716+arr(%rip), %r10d
	imull	3720+arr(%rip), %r10d
	imull	3724+arr(%rip), %r10d
	imull	3728+arr(%rip), %r10d
	imull	3732+arr(%rip), %r10d
	imull	3736+arr(%rip), %r10d
	imull	3740+arr(%rip), %r10d
	imull	3744+arr(%rip), %r10d
	imull	3748+arr(%rip), %r10d
	imull	3752+arr(%rip), %r10d
	imull	3756+arr(%rip), %r10d
	imull	3760+arr(%rip), %r10d
	imull	3764+arr(%rip), %r10d
	imull	3768+arr(%rip), %r10d
	imull	3772+arr(%rip), %r10d
	imull	3776+arr(%rip), %r10d
	imull	3780+arr(%rip), %r10d
	imull	3784+arr(%rip), %r10d
	imull	3788+arr(%rip), %r10d
	imull	3792+arr(%rip), %r10d
	imull	4500+arr(%rip), %r9d
	imull	4504+arr(%rip), %r9d
	imull	4508+arr(%rip), %r9d
	imull	4512+arr(%rip), %r9d
	imull	4516+arr(%rip), %r9d
	imull	4520+arr(%rip), %r9d
	imull	4524+arr(%rip), %r9d
	imull	4528+arr(%rip), %r9d
	imull	4532+arr(%rip), %r9d
	imull	4536+arr(%rip), %r9d
	imull	4540+arr(%rip), %r9d
	imull	4544+arr(%rip), %r9d
	imull	4548+arr(%rip), %r9d
	imull	4552+arr(%rip), %r9d
	imull	4556+arr(%rip), %r9d
	imull	4560+arr(%rip), %r9d
	imull	4564+arr(%rip), %r9d
	imull	4568+arr(%rip), %r9d
	imull	4572+arr(%rip), %r9d
	imull	4576+arr(%rip), %r9d
	imull	4580+arr(%rip), %r9d
	imull	4584+arr(%rip), %r9d
	imull	4588+arr(%rip), %r9d
	imull	4592+arr(%rip), %r9d
	imull	5300+arr(%rip), %r8d
	imull	5304+arr(%rip), %r8d
	imull	5308+arr(%rip), %r8d
	imull	5312+arr(%rip), %r8d
	imull	5316+arr(%rip), %r8d
	imull	5320+arr(%rip), %r8d
	imull	5324+arr(%rip), %r8d
	imull	5328+arr(%rip), %r8d
	imull	5332+arr(%rip), %r8d
	imull	5336+arr(%rip), %r8d
	imull	5340+arr(%rip), %r8d
	imull	5344+arr(%rip), %r8d
	imull	5348+arr(%rip), %r8d
	imull	5352+arr(%rip), %r8d
	imull	5356+arr(%rip), %r8d
	imull	5360+arr(%rip), %r8d
	imull	5364+arr(%rip), %r8d
	imull	5368+arr(%rip), %r8d
	imull	5372+arr(%rip), %r8d
	imull	5376+arr(%rip), %r8d
	imull	5380+arr(%rip), %r8d
	imull	5384+arr(%rip), %r8d
	imull	5388+arr(%rip), %r8d
	imull	5392+arr(%rip), %r8d
	imull	6100+arr(%rip), %ecx
	imull	6104+arr(%rip), %ecx
	imull	6108+arr(%rip), %ecx
	imull	6112+arr(%rip), %ecx
	imull	6116+arr(%rip), %ecx
	imull	6120+arr(%rip), %ecx
	imull	6124+arr(%rip), %ecx
	imull	6128+arr(%rip), %ecx
	imull	6132+arr(%rip), %ecx
	imull	6136+arr(%rip), %ecx
	imull	6140+arr(%rip), %ecx
	imull	6144+arr(%rip), %ecx
	imull	6148+arr(%rip), %ecx
	imull	6152+arr(%rip), %ecx
	imull	6156+arr(%rip), %ecx
	imull	6160+arr(%rip), %ecx
	imull	6164+arr(%rip), %ecx
	imull	6168+arr(%rip), %ecx
	imull	6172+arr(%rip), %ecx
	imull	6176+arr(%rip), %ecx
	imull	6180+arr(%rip), %ecx
	imull	6184+arr(%rip), %ecx
	imull	6188+arr(%rip), %ecx
	imull	6192+arr(%rip), %ecx
	imull	6900+arr(%rip), %edx
	imull	6904+arr(%rip), %edx
	imull	6908+arr(%rip), %edx
	imull	6912+arr(%rip), %edx
	imull	6916+arr(%rip), %edx
	imull	6920+arr(%rip), %edx
	imull	6924+arr(%rip), %edx
	imull	6928+arr(%rip), %edx
	imull	6932+arr(%rip), %edx
	imull	6936+arr(%rip), %edx
	imull	6940+arr(%rip), %edx
	imull	6944+arr(%rip), %edx
	imull	6948+arr(%rip), %edx
	imull	6952+arr(%rip), %edx
	imull	6956+arr(%rip), %edx
	imull	6960+arr(%rip), %edx
	imull	6964+arr(%rip), %edx
	imull	6968+arr(%rip), %edx
	imull	6972+arr(%rip), %edx
	imull	6976+arr(%rip), %edx
	imull	6980+arr(%rip), %edx
	imull	6984+arr(%rip), %edx
	imull	6988+arr(%rip), %edx
	imull	6992+arr(%rip), %edx
	imull	7700+arr(%rip), %eax
	imull	7704+arr(%rip), %eax
	imull	7708+arr(%rip), %eax
	imull	7712+arr(%rip), %eax
	imull	7716+arr(%rip), %eax
	imull	7720+arr(%rip), %eax
	imull	7724+arr(%rip), %eax
	imull	7728+arr(%rip), %eax
	imull	7732+arr(%rip), %eax
	imull	7736+arr(%rip), %eax
	imull	7740+arr(%rip), %eax
	imull	7744+arr(%rip), %eax
	imull	7748+arr(%rip), %eax
	imull	7752+arr(%rip), %eax
	imull	7756+arr(%rip), %eax
	imull	7760+arr(%rip), %eax
	imull	7764+arr(%rip), %eax
	imull	7768+arr(%rip), %eax
	imull	7772+arr(%rip), %eax
	imull	7776+arr(%rip), %eax
	imull	7780+arr(%rip), %eax
	imull	7784+arr(%rip), %eax
	imull	7788+arr(%rip), %eax
	imull	7792+arr(%rip), %eax
	imull	500+arr(%rip), %r12d
	imull	504+arr(%rip), %r12d
	imull	508+arr(%rip), %r12d
	imull	512+arr(%rip), %r12d
	imull	516+arr(%rip), %r12d
	imull	520+arr(%rip), %r12d
	imull	524+arr(%rip), %r12d
	imull	528+arr(%rip), %r12d
	imull	532+arr(%rip), %r12d
	imull	536+arr(%rip), %r12d
	imull	540+arr(%rip), %r12d
	imull	544+arr(%rip), %r12d
	imull	548+arr(%rip), %r12d
	imull	552+arr(%rip), %r12d
	imull	556+arr(%rip), %r12d
	imull	560+arr(%rip), %r12d
	imull	564+arr(%rip), %r12d
	imull	568+arr(%rip), %r12d
	imull	572+arr(%rip), %r12d
	imull	576+arr(%rip), %r12d
	imull	580+arr(%rip), %r12d
	imull	584+arr(%rip), %r12d
	imull	588+arr(%rip), %r12d
	imull	592+arr(%rip), %r12d
	imull	596+arr(%rip), %r12d
	imull	1396+arr(%rip), %ebp
	imull	2196+arr(%rip), %edi
	imull	2996+arr(%rip), %r11d
	imull	3796+arr(%rip), %r10d
	imull	4596+arr(%rip), %r9d
	imull	5396+arr(%rip), %r8d
	imull	6196+arr(%rip), %ecx
	imull	6996+arr(%rip), %edx
	imull	7796+arr(%rip), %eax
	imull	1400+arr(%rip), %ebp
	imull	1404+arr(%rip), %ebp
	imull	1408+arr(%rip), %ebp
	imull	1412+arr(%rip), %ebp
	imull	1416+arr(%rip), %ebp
	imull	1420+arr(%rip), %ebp
	imull	1424+arr(%rip), %ebp
	imull	1428+arr(%rip), %ebp
	imull	1432+arr(%rip), %ebp
	imull	1436+arr(%rip), %ebp
	imull	1440+arr(%rip), %ebp
	imull	1444+arr(%rip), %ebp
	imull	1448+arr(%rip), %ebp
	imull	1452+arr(%rip), %ebp
	imull	1456+arr(%rip), %ebp
	imull	1460+arr(%rip), %ebp
	imull	1464+arr(%rip), %ebp
	imull	1468+arr(%rip), %ebp
	imull	1472+arr(%rip), %ebp
	imull	1476+arr(%rip), %ebp
	imull	1480+arr(%rip), %ebp
	imull	1484+arr(%rip), %ebp
	imull	1488+arr(%rip), %ebp
	imull	1492+arr(%rip), %ebp
	imull	2200+arr(%rip), %edi
	imull	2204+arr(%rip), %edi
	imull	2208+arr(%rip), %edi
	imull	2212+arr(%rip), %edi
	imull	2216+arr(%rip), %edi
	imull	2220+arr(%rip), %edi
	imull	2224+arr(%rip), %edi
	imull	2228+arr(%rip), %edi
	imull	2232+arr(%rip), %edi
	imull	2236+arr(%rip), %edi
	imull	2240+arr(%rip), %edi
	imull	2244+arr(%rip), %edi
	imull	2248+arr(%rip), %edi
	imull	2252+arr(%rip), %edi
	imull	2256+arr(%rip), %edi
	imull	2260+arr(%rip), %edi
	imull	2264+arr(%rip), %edi
	imull	2268+arr(%rip), %edi
	imull	2272+arr(%rip), %edi
	imull	2276+arr(%rip), %edi
	imull	2280+arr(%rip), %edi
	imull	2284+arr(%rip), %edi
	imull	2288+arr(%rip), %edi
	imull	2292+arr(%rip), %edi
	imull	3000+arr(%rip), %r11d
	imull	3004+arr(%rip), %r11d
	imull	3008+arr(%rip), %r11d
	imull	3012+arr(%rip), %r11d
	imull	3016+arr(%rip), %r11d
	imull	3020+arr(%rip), %r11d
	imull	3024+arr(%rip), %r11d
	imull	3028+arr(%rip), %r11d
	imull	3032+arr(%rip), %r11d
	imull	3036+arr(%rip), %r11d
	imull	3040+arr(%rip), %r11d
	imull	3044+arr(%rip), %r11d
	imull	3048+arr(%rip), %r11d
	imull	3052+arr(%rip), %r11d
	imull	3056+arr(%rip), %r11d
	imull	3060+arr(%rip), %r11d
	imull	3064+arr(%rip), %r11d
	imull	3068+arr(%rip), %r11d
	imull	3072+arr(%rip), %r11d
	imull	3076+arr(%rip), %r11d
	imull	3080+arr(%rip), %r11d
	imull	3084+arr(%rip), %r11d
	imull	3088+arr(%rip), %r11d
	imull	3092+arr(%rip), %r11d
	imull	3800+arr(%rip), %r10d
	imull	3804+arr(%rip), %r10d
	imull	3808+arr(%rip), %r10d
	imull	3812+arr(%rip), %r10d
	imull	3816+arr(%rip), %r10d
	imull	3820+arr(%rip), %r10d
	imull	3824+arr(%rip), %r10d
	imull	3828+arr(%rip), %r10d
	imull	3832+arr(%rip), %r10d
	imull	3836+arr(%rip), %r10d
	imull	3840+arr(%rip), %r10d
	imull	3844+arr(%rip), %r10d
	imull	3848+arr(%rip), %r10d
	imull	3852+arr(%rip), %r10d
	imull	3856+arr(%rip), %r10d
	imull	3860+arr(%rip), %r10d
	imull	3864+arr(%rip), %r10d
	imull	3868+arr(%rip), %r10d
	imull	3872+arr(%rip), %r10d
	imull	3876+arr(%rip), %r10d
	imull	3880+arr(%rip), %r10d
	imull	3884+arr(%rip), %r10d
	imull	3888+arr(%rip), %r10d
	imull	3892+arr(%rip), %r10d
	imull	4600+arr(%rip), %r9d
	imull	4604+arr(%rip), %r9d
	imull	4608+arr(%rip), %r9d
	imull	4612+arr(%rip), %r9d
	imull	4616+arr(%rip), %r9d
	imull	4620+arr(%rip), %r9d
	imull	4624+arr(%rip), %r9d
	imull	4628+arr(%rip), %r9d
	imull	4632+arr(%rip), %r9d
	imull	4636+arr(%rip), %r9d
	imull	4640+arr(%rip), %r9d
	imull	4644+arr(%rip), %r9d
	imull	4648+arr(%rip), %r9d
	imull	4652+arr(%rip), %r9d
	imull	4656+arr(%rip), %r9d
	imull	4660+arr(%rip), %r9d
	imull	4664+arr(%rip), %r9d
	imull	4668+arr(%rip), %r9d
	imull	4672+arr(%rip), %r9d
	imull	4676+arr(%rip), %r9d
	imull	4680+arr(%rip), %r9d
	imull	4684+arr(%rip), %r9d
	imull	4688+arr(%rip), %r9d
	imull	4692+arr(%rip), %r9d
	imull	5400+arr(%rip), %r8d
	imull	5404+arr(%rip), %r8d
	imull	5408+arr(%rip), %r8d
	imull	5412+arr(%rip), %r8d
	imull	5416+arr(%rip), %r8d
	imull	5420+arr(%rip), %r8d
	imull	5424+arr(%rip), %r8d
	imull	5428+arr(%rip), %r8d
	imull	5432+arr(%rip), %r8d
	imull	5436+arr(%rip), %r8d
	imull	5440+arr(%rip), %r8d
	imull	5444+arr(%rip), %r8d
	imull	5448+arr(%rip), %r8d
	imull	5452+arr(%rip), %r8d
	imull	5456+arr(%rip), %r8d
	imull	5460+arr(%rip), %r8d
	imull	5464+arr(%rip), %r8d
	imull	5468+arr(%rip), %r8d
	imull	5472+arr(%rip), %r8d
	imull	5476+arr(%rip), %r8d
	imull	5480+arr(%rip), %r8d
	imull	5484+arr(%rip), %r8d
	imull	5488+arr(%rip), %r8d
	imull	5492+arr(%rip), %r8d
	imull	6200+arr(%rip), %ecx
	imull	6204+arr(%rip), %ecx
	imull	6208+arr(%rip), %ecx
	imull	6212+arr(%rip), %ecx
	imull	6216+arr(%rip), %ecx
	imull	6220+arr(%rip), %ecx
	imull	6224+arr(%rip), %ecx
	imull	6228+arr(%rip), %ecx
	imull	6232+arr(%rip), %ecx
	imull	6236+arr(%rip), %ecx
	imull	6240+arr(%rip), %ecx
	imull	6244+arr(%rip), %ecx
	imull	6248+arr(%rip), %ecx
	imull	6252+arr(%rip), %ecx
	imull	6256+arr(%rip), %ecx
	imull	6260+arr(%rip), %ecx
	imull	6264+arr(%rip), %ecx
	imull	6268+arr(%rip), %ecx
	imull	6272+arr(%rip), %ecx
	imull	6276+arr(%rip), %ecx
	imull	6280+arr(%rip), %ecx
	imull	6284+arr(%rip), %ecx
	imull	6288+arr(%rip), %ecx
	imull	6292+arr(%rip), %ecx
	imull	7000+arr(%rip), %edx
	imull	7004+arr(%rip), %edx
	imull	7008+arr(%rip), %edx
	imull	7012+arr(%rip), %edx
	imull	7016+arr(%rip), %edx
	imull	7020+arr(%rip), %edx
	imull	7024+arr(%rip), %edx
	imull	7028+arr(%rip), %edx
	imull	7032+arr(%rip), %edx
	imull	7036+arr(%rip), %edx
	imull	7040+arr(%rip), %edx
	imull	7044+arr(%rip), %edx
	imull	7048+arr(%rip), %edx
	imull	7052+arr(%rip), %edx
	imull	7056+arr(%rip), %edx
	imull	7060+arr(%rip), %edx
	imull	7064+arr(%rip), %edx
	imull	7068+arr(%rip), %edx
	imull	7072+arr(%rip), %edx
	imull	7076+arr(%rip), %edx
	imull	7080+arr(%rip), %edx
	imull	7084+arr(%rip), %edx
	imull	7088+arr(%rip), %edx
	imull	7092+arr(%rip), %edx
	imull	7800+arr(%rip), %eax
	imull	7804+arr(%rip), %eax
	imull	7808+arr(%rip), %eax
	imull	7812+arr(%rip), %eax
	imull	7816+arr(%rip), %eax
	imull	7820+arr(%rip), %eax
	imull	7824+arr(%rip), %eax
	imull	7828+arr(%rip), %eax
	imull	7832+arr(%rip), %eax
	imull	7836+arr(%rip), %eax
	imull	7840+arr(%rip), %eax
	imull	7844+arr(%rip), %eax
	imull	7848+arr(%rip), %eax
	imull	7852+arr(%rip), %eax
	imull	7856+arr(%rip), %eax
	imull	7860+arr(%rip), %eax
	imull	7864+arr(%rip), %eax
	imull	7868+arr(%rip), %eax
	imull	7872+arr(%rip), %eax
	imull	7876+arr(%rip), %eax
	imull	7880+arr(%rip), %eax
	imull	7884+arr(%rip), %eax
	imull	7888+arr(%rip), %eax
	imull	7892+arr(%rip), %eax
	imull	600+arr(%rip), %r12d
	imull	604+arr(%rip), %r12d
	imull	608+arr(%rip), %r12d
	imull	612+arr(%rip), %r12d
	imull	616+arr(%rip), %r12d
	imull	620+arr(%rip), %r12d
	imull	624+arr(%rip), %r12d
	imull	628+arr(%rip), %r12d
	imull	632+arr(%rip), %r12d
	imull	636+arr(%rip), %r12d
	imull	640+arr(%rip), %r12d
	imull	644+arr(%rip), %r12d
	imull	648+arr(%rip), %r12d
	imull	652+arr(%rip), %r12d
	imull	656+arr(%rip), %r12d
	imull	660+arr(%rip), %r12d
	imull	664+arr(%rip), %r12d
	imull	668+arr(%rip), %r12d
	imull	672+arr(%rip), %r12d
	imull	676+arr(%rip), %r12d
	imull	680+arr(%rip), %r12d
	imull	684+arr(%rip), %r12d
	imull	688+arr(%rip), %r12d
	imull	692+arr(%rip), %r12d
	imull	696+arr(%rip), %r12d
	imull	1496+arr(%rip), %ebp
	imull	2296+arr(%rip), %edi
	imull	3096+arr(%rip), %r11d
	imull	3896+arr(%rip), %r10d
	imull	4696+arr(%rip), %r9d
	imull	5496+arr(%rip), %r8d
	imull	6296+arr(%rip), %ecx
	imull	7096+arr(%rip), %edx
	imull	7896+arr(%rip), %eax
	imull	1500+arr(%rip), %ebp
	imull	1504+arr(%rip), %ebp
	imull	1508+arr(%rip), %ebp
	imull	1512+arr(%rip), %ebp
	imull	1516+arr(%rip), %ebp
	imull	1520+arr(%rip), %ebp
	imull	1524+arr(%rip), %ebp
	imull	1528+arr(%rip), %ebp
	imull	1532+arr(%rip), %ebp
	imull	1536+arr(%rip), %ebp
	imull	1540+arr(%rip), %ebp
	imull	1544+arr(%rip), %ebp
	imull	1548+arr(%rip), %ebp
	imull	1552+arr(%rip), %ebp
	imull	1556+arr(%rip), %ebp
	imull	1560+arr(%rip), %ebp
	imull	1564+arr(%rip), %ebp
	imull	1568+arr(%rip), %ebp
	imull	1572+arr(%rip), %ebp
	imull	1576+arr(%rip), %ebp
	imull	1580+arr(%rip), %ebp
	imull	1584+arr(%rip), %ebp
	imull	1588+arr(%rip), %ebp
	imull	1592+arr(%rip), %ebp
	imull	2300+arr(%rip), %edi
	imull	2304+arr(%rip), %edi
	imull	2308+arr(%rip), %edi
	imull	2312+arr(%rip), %edi
	imull	2316+arr(%rip), %edi
	imull	2320+arr(%rip), %edi
	imull	2324+arr(%rip), %edi
	imull	2328+arr(%rip), %edi
	imull	2332+arr(%rip), %edi
	imull	2336+arr(%rip), %edi
	imull	2340+arr(%rip), %edi
	imull	2344+arr(%rip), %edi
	imull	2348+arr(%rip), %edi
	imull	2352+arr(%rip), %edi
	imull	2356+arr(%rip), %edi
	imull	2360+arr(%rip), %edi
	imull	2364+arr(%rip), %edi
	imull	2368+arr(%rip), %edi
	imull	2372+arr(%rip), %edi
	imull	2376+arr(%rip), %edi
	imull	2380+arr(%rip), %edi
	imull	2384+arr(%rip), %edi
	imull	2388+arr(%rip), %edi
	imull	2392+arr(%rip), %edi
	imull	3100+arr(%rip), %r11d
	imull	3104+arr(%rip), %r11d
	imull	3108+arr(%rip), %r11d
	imull	3112+arr(%rip), %r11d
	imull	3116+arr(%rip), %r11d
	imull	3120+arr(%rip), %r11d
	imull	3124+arr(%rip), %r11d
	imull	3128+arr(%rip), %r11d
	imull	3132+arr(%rip), %r11d
	imull	3136+arr(%rip), %r11d
	imull	3140+arr(%rip), %r11d
	imull	3144+arr(%rip), %r11d
	imull	3148+arr(%rip), %r11d
	imull	3152+arr(%rip), %r11d
	imull	3156+arr(%rip), %r11d
	imull	3160+arr(%rip), %r11d
	imull	3164+arr(%rip), %r11d
	imull	3168+arr(%rip), %r11d
	imull	3172+arr(%rip), %r11d
	imull	3176+arr(%rip), %r11d
	imull	3180+arr(%rip), %r11d
	imull	3184+arr(%rip), %r11d
	imull	3188+arr(%rip), %r11d
	imull	3192+arr(%rip), %r11d
	imull	3900+arr(%rip), %r10d
	imull	3904+arr(%rip), %r10d
	imull	3908+arr(%rip), %r10d
	imull	3912+arr(%rip), %r10d
	imull	3916+arr(%rip), %r10d
	imull	3920+arr(%rip), %r10d
	imull	3924+arr(%rip), %r10d
	imull	3928+arr(%rip), %r10d
	imull	3932+arr(%rip), %r10d
	imull	3936+arr(%rip), %r10d
	imull	3940+arr(%rip), %r10d
	imull	3944+arr(%rip), %r10d
	imull	3948+arr(%rip), %r10d
	imull	3952+arr(%rip), %r10d
	imull	3956+arr(%rip), %r10d
	imull	3960+arr(%rip), %r10d
	imull	3964+arr(%rip), %r10d
	imull	3968+arr(%rip), %r10d
	imull	3972+arr(%rip), %r10d
	imull	3976+arr(%rip), %r10d
	imull	3980+arr(%rip), %r10d
	imull	3984+arr(%rip), %r10d
	imull	3988+arr(%rip), %r10d
	imull	3992+arr(%rip), %r10d
	imull	4700+arr(%rip), %r9d
	imull	4704+arr(%rip), %r9d
	imull	4708+arr(%rip), %r9d
	imull	4712+arr(%rip), %r9d
	imull	4716+arr(%rip), %r9d
	imull	4720+arr(%rip), %r9d
	imull	4724+arr(%rip), %r9d
	imull	4728+arr(%rip), %r9d
	imull	4732+arr(%rip), %r9d
	imull	4736+arr(%rip), %r9d
	imull	4740+arr(%rip), %r9d
	imull	4744+arr(%rip), %r9d
	imull	4748+arr(%rip), %r9d
	imull	4752+arr(%rip), %r9d
	imull	4756+arr(%rip), %r9d
	imull	4760+arr(%rip), %r9d
	imull	4764+arr(%rip), %r9d
	imull	4768+arr(%rip), %r9d
	imull	4772+arr(%rip), %r9d
	imull	4776+arr(%rip), %r9d
	imull	4780+arr(%rip), %r9d
	imull	4784+arr(%rip), %r9d
	imull	4788+arr(%rip), %r9d
	imull	4792+arr(%rip), %r9d
	imull	5500+arr(%rip), %r8d
	imull	5504+arr(%rip), %r8d
	imull	5508+arr(%rip), %r8d
	imull	5512+arr(%rip), %r8d
	imull	5516+arr(%rip), %r8d
	imull	5520+arr(%rip), %r8d
	imull	5524+arr(%rip), %r8d
	imull	5528+arr(%rip), %r8d
	imull	5532+arr(%rip), %r8d
	imull	5536+arr(%rip), %r8d
	imull	5540+arr(%rip), %r8d
	imull	5544+arr(%rip), %r8d
	imull	5548+arr(%rip), %r8d
	imull	5552+arr(%rip), %r8d
	imull	5556+arr(%rip), %r8d
	imull	5560+arr(%rip), %r8d
	imull	5564+arr(%rip), %r8d
	imull	5568+arr(%rip), %r8d
	imull	5572+arr(%rip), %r8d
	imull	5576+arr(%rip), %r8d
	imull	5580+arr(%rip), %r8d
	imull	5584+arr(%rip), %r8d
	imull	5588+arr(%rip), %r8d
	imull	5592+arr(%rip), %r8d
	imull	6300+arr(%rip), %ecx
	imull	6304+arr(%rip), %ecx
	imull	6308+arr(%rip), %ecx
	imull	6312+arr(%rip), %ecx
	imull	6316+arr(%rip), %ecx
	imull	6320+arr(%rip), %ecx
	imull	6324+arr(%rip), %ecx
	imull	6328+arr(%rip), %ecx
	imull	6332+arr(%rip), %ecx
	imull	6336+arr(%rip), %ecx
	imull	6340+arr(%rip), %ecx
	imull	6344+arr(%rip), %ecx
	imull	6348+arr(%rip), %ecx
	imull	6352+arr(%rip), %ecx
	imull	6356+arr(%rip), %ecx
	imull	6360+arr(%rip), %ecx
	imull	6364+arr(%rip), %ecx
	imull	6368+arr(%rip), %ecx
	imull	6372+arr(%rip), %ecx
	imull	6376+arr(%rip), %ecx
	imull	6380+arr(%rip), %ecx
	imull	6384+arr(%rip), %ecx
	imull	6388+arr(%rip), %ecx
	imull	6392+arr(%rip), %ecx
	imull	7100+arr(%rip), %edx
	imull	7104+arr(%rip), %edx
	imull	7108+arr(%rip), %edx
	imull	7112+arr(%rip), %edx
	imull	7116+arr(%rip), %edx
	imull	7120+arr(%rip), %edx
	imull	7124+arr(%rip), %edx
	imull	7128+arr(%rip), %edx
	imull	7132+arr(%rip), %edx
	imull	7136+arr(%rip), %edx
	imull	7140+arr(%rip), %edx
	imull	7144+arr(%rip), %edx
	imull	7148+arr(%rip), %edx
	imull	7152+arr(%rip), %edx
	imull	7156+arr(%rip), %edx
	imull	7160+arr(%rip), %edx
	imull	7164+arr(%rip), %edx
	imull	7168+arr(%rip), %edx
	imull	7172+arr(%rip), %edx
	imull	7176+arr(%rip), %edx
	imull	7180+arr(%rip), %edx
	imull	7184+arr(%rip), %edx
	imull	7188+arr(%rip), %edx
	imull	7192+arr(%rip), %edx
	imull	7900+arr(%rip), %eax
	imull	7904+arr(%rip), %eax
	imull	7908+arr(%rip), %eax
	imull	7912+arr(%rip), %eax
	imull	7916+arr(%rip), %eax
	imull	7920+arr(%rip), %eax
	imull	7924+arr(%rip), %eax
	imull	7928+arr(%rip), %eax
	imull	7932+arr(%rip), %eax
	imull	7936+arr(%rip), %eax
	imull	7940+arr(%rip), %eax
	imull	7944+arr(%rip), %eax
	imull	7948+arr(%rip), %eax
	imull	7952+arr(%rip), %eax
	imull	7956+arr(%rip), %eax
	imull	7960+arr(%rip), %eax
	imull	7964+arr(%rip), %eax
	imull	7968+arr(%rip), %eax
	imull	7972+arr(%rip), %eax
	imull	7976+arr(%rip), %eax
	imull	7980+arr(%rip), %eax
	imull	7984+arr(%rip), %eax
	imull	7988+arr(%rip), %eax
	imull	7992+arr(%rip), %eax
	imull	700+arr(%rip), %r12d
	imull	704+arr(%rip), %r12d
	imull	708+arr(%rip), %r12d
	imull	712+arr(%rip), %r12d
	imull	716+arr(%rip), %r12d
	imull	720+arr(%rip), %r12d
	imull	724+arr(%rip), %r12d
	imull	728+arr(%rip), %r12d
	imull	732+arr(%rip), %r12d
	imull	736+arr(%rip), %r12d
	imull	740+arr(%rip), %r12d
	imull	744+arr(%rip), %r12d
	imull	748+arr(%rip), %r12d
	imull	752+arr(%rip), %r12d
	imull	756+arr(%rip), %r12d
	imull	760+arr(%rip), %r12d
	imull	764+arr(%rip), %r12d
	imull	768+arr(%rip), %r12d
	imull	772+arr(%rip), %r12d
	imull	776+arr(%rip), %r12d
	imull	780+arr(%rip), %r12d
	imull	784+arr(%rip), %r12d
	imull	788+arr(%rip), %r12d
	imull	792+arr(%rip), %r12d
	imull	796+arr(%rip), %r12d
	imull	1596+arr(%rip), %ebp
	imull	2396+arr(%rip), %edi
	imull	3196+arr(%rip), %r11d
	imull	3996+arr(%rip), %r10d
	imull	4796+arr(%rip), %r9d
	imull	5596+arr(%rip), %r8d
	imull	6396+arr(%rip), %ecx
	imull	7196+arr(%rip), %edx
	imull	7996+arr(%rip), %eax
	imull	800+arr(%rip), %ebp
	imull	804+arr(%rip), %ebp
	imull	808+arr(%rip), %ebp
	imull	812+arr(%rip), %ebp
	imull	816+arr(%rip), %ebp
	imull	820+arr(%rip), %ebp
	imull	824+arr(%rip), %ebp
	imull	828+arr(%rip), %ebp
	imull	832+arr(%rip), %ebp
	imull	836+arr(%rip), %ebp
	imull	840+arr(%rip), %ebp
	imull	844+arr(%rip), %ebp
	imull	848+arr(%rip), %ebp
	imull	852+arr(%rip), %ebp
	imull	856+arr(%rip), %ebp
	imull	860+arr(%rip), %ebp
	imull	864+arr(%rip), %ebp
	imull	868+arr(%rip), %ebp
	imull	872+arr(%rip), %ebp
	imull	876+arr(%rip), %ebp
	imull	880+arr(%rip), %ebp
	imull	884+arr(%rip), %ebp
	imull	888+arr(%rip), %ebp
	imull	892+arr(%rip), %ebp
	imull	1600+arr(%rip), %edi
	imull	1604+arr(%rip), %edi
	imull	1608+arr(%rip), %edi
	imull	1612+arr(%rip), %edi
	imull	1616+arr(%rip), %edi
	imull	1620+arr(%rip), %edi
	imull	1624+arr(%rip), %edi
	imull	1628+arr(%rip), %edi
	imull	1632+arr(%rip), %edi
	imull	1636+arr(%rip), %edi
	imull	1640+arr(%rip), %edi
	imull	1644+arr(%rip), %edi
	imull	1648+arr(%rip), %edi
	imull	1652+arr(%rip), %edi
	imull	1656+arr(%rip), %edi
	imull	1660+arr(%rip), %edi
	imull	1664+arr(%rip), %edi
	imull	1668+arr(%rip), %edi
	imull	1672+arr(%rip), %edi
	imull	1676+arr(%rip), %edi
	imull	1680+arr(%rip), %edi
	imull	1684+arr(%rip), %edi
	imull	1688+arr(%rip), %edi
	imull	1692+arr(%rip), %edi
	imull	2400+arr(%rip), %r11d
	imull	2404+arr(%rip), %r11d
	imull	2408+arr(%rip), %r11d
	imull	2412+arr(%rip), %r11d
	imull	2416+arr(%rip), %r11d
	imull	2420+arr(%rip), %r11d
	imull	2424+arr(%rip), %r11d
	imull	2428+arr(%rip), %r11d
	imull	2432+arr(%rip), %r11d
	imull	2436+arr(%rip), %r11d
	imull	2440+arr(%rip), %r11d
	imull	2444+arr(%rip), %r11d
	imull	2448+arr(%rip), %r11d
	imull	2452+arr(%rip), %r11d
	imull	2456+arr(%rip), %r11d
	imull	2460+arr(%rip), %r11d
	imull	2464+arr(%rip), %r11d
	imull	2468+arr(%rip), %r11d
	imull	2472+arr(%rip), %r11d
	imull	2476+arr(%rip), %r11d
	imull	2480+arr(%rip), %r11d
	imull	2484+arr(%rip), %r11d
	imull	2488+arr(%rip), %r11d
	imull	2492+arr(%rip), %r11d
	imull	3200+arr(%rip), %r10d
	imull	3204+arr(%rip), %r10d
	imull	3208+arr(%rip), %r10d
	imull	3212+arr(%rip), %r10d
	imull	3216+arr(%rip), %r10d
	imull	3220+arr(%rip), %r10d
	imull	3224+arr(%rip), %r10d
	imull	3228+arr(%rip), %r10d
	imull	3232+arr(%rip), %r10d
	imull	3236+arr(%rip), %r10d
	imull	3240+arr(%rip), %r10d
	imull	3244+arr(%rip), %r10d
	imull	3248+arr(%rip), %r10d
	imull	3252+arr(%rip), %r10d
	imull	3256+arr(%rip), %r10d
	imull	3260+arr(%rip), %r10d
	imull	3264+arr(%rip), %r10d
	imull	3268+arr(%rip), %r10d
	imull	3272+arr(%rip), %r10d
	imull	3276+arr(%rip), %r10d
	imull	3280+arr(%rip), %r10d
	imull	3284+arr(%rip), %r10d
	imull	3288+arr(%rip), %r10d
	imull	3292+arr(%rip), %r10d
	imull	4000+arr(%rip), %r9d
	imull	4004+arr(%rip), %r9d
	imull	4008+arr(%rip), %r9d
	imull	4012+arr(%rip), %r9d
	imull	4016+arr(%rip), %r9d
	imull	4020+arr(%rip), %r9d
	imull	4024+arr(%rip), %r9d
	imull	4028+arr(%rip), %r9d
	imull	4032+arr(%rip), %r9d
	imull	4036+arr(%rip), %r9d
	imull	4040+arr(%rip), %r9d
	imull	4044+arr(%rip), %r9d
	imull	4048+arr(%rip), %r9d
	imull	4052+arr(%rip), %r9d
	imull	4056+arr(%rip), %r9d
	imull	4060+arr(%rip), %r9d
	imull	4064+arr(%rip), %r9d
	imull	4068+arr(%rip), %r9d
	imull	4072+arr(%rip), %r9d
	imull	4076+arr(%rip), %r9d
	imull	4080+arr(%rip), %r9d
	imull	4084+arr(%rip), %r9d
	imull	4088+arr(%rip), %r9d
	imull	4092+arr(%rip), %r9d
	imull	4800+arr(%rip), %r8d
	imull	4804+arr(%rip), %r8d
	imull	4808+arr(%rip), %r8d
	imull	4812+arr(%rip), %r8d
	imull	4816+arr(%rip), %r8d
	imull	4820+arr(%rip), %r8d
	imull	4824+arr(%rip), %r8d
	imull	4828+arr(%rip), %r8d
	imull	4832+arr(%rip), %r8d
	imull	4836+arr(%rip), %r8d
	imull	4840+arr(%rip), %r8d
	imull	4844+arr(%rip), %r8d
	imull	4848+arr(%rip), %r8d
	imull	4852+arr(%rip), %r8d
	imull	4856+arr(%rip), %r8d
	imull	4860+arr(%rip), %r8d
	imull	4864+arr(%rip), %r8d
	imull	4868+arr(%rip), %r8d
	imull	4872+arr(%rip), %r8d
	imull	4876+arr(%rip), %r8d
	imull	4880+arr(%rip), %r8d
	imull	4884+arr(%rip), %r8d
	imull	4888+arr(%rip), %r8d
	imull	4892+arr(%rip), %r8d
	imull	5600+arr(%rip), %ecx
	imull	5604+arr(%rip), %ecx
	imull	5608+arr(%rip), %ecx
	imull	5612+arr(%rip), %ecx
	imull	5616+arr(%rip), %ecx
	imull	5620+arr(%rip), %ecx
	imull	5624+arr(%rip), %ecx
	imull	5628+arr(%rip), %ecx
	imull	5632+arr(%rip), %ecx
	imull	5636+arr(%rip), %ecx
	imull	5640+arr(%rip), %ecx
	imull	5644+arr(%rip), %ecx
	imull	5648+arr(%rip), %ecx
	imull	5652+arr(%rip), %ecx
	imull	5656+arr(%rip), %ecx
	imull	5660+arr(%rip), %ecx
	imull	5664+arr(%rip), %ecx
	imull	5668+arr(%rip), %ecx
	imull	5672+arr(%rip), %ecx
	imull	5676+arr(%rip), %ecx
	imull	5680+arr(%rip), %ecx
	imull	5684+arr(%rip), %ecx
	imull	5688+arr(%rip), %ecx
	imull	5692+arr(%rip), %ecx
	imull	6400+arr(%rip), %edx
	imull	6404+arr(%rip), %edx
	imull	6408+arr(%rip), %edx
	imull	6412+arr(%rip), %edx
	imull	6416+arr(%rip), %edx
	imull	6420+arr(%rip), %edx
	imull	6424+arr(%rip), %edx
	imull	6428+arr(%rip), %edx
	imull	6432+arr(%rip), %edx
	imull	6436+arr(%rip), %edx
	imull	6440+arr(%rip), %edx
	imull	6444+arr(%rip), %edx
	imull	6448+arr(%rip), %edx
	imull	6452+arr(%rip), %edx
	imull	6456+arr(%rip), %edx
	imull	6460+arr(%rip), %edx
	imull	6464+arr(%rip), %edx
	imull	6468+arr(%rip), %edx
	imull	6472+arr(%rip), %edx
	imull	6476+arr(%rip), %edx
	imull	6480+arr(%rip), %edx
	imull	6484+arr(%rip), %edx
	imull	6488+arr(%rip), %edx
	imull	6492+arr(%rip), %edx
	imull	7200+arr(%rip), %eax
	imull	7204+arr(%rip), %eax
	imull	7208+arr(%rip), %eax
	imull	7212+arr(%rip), %eax
	imull	7216+arr(%rip), %eax
	imull	7220+arr(%rip), %eax
	imull	7224+arr(%rip), %eax
	imull	7228+arr(%rip), %eax
	imull	7232+arr(%rip), %eax
	imull	7236+arr(%rip), %eax
	imull	7240+arr(%rip), %eax
	imull	7244+arr(%rip), %eax
	imull	7248+arr(%rip), %eax
	imull	7252+arr(%rip), %eax
	imull	7256+arr(%rip), %eax
	imull	7260+arr(%rip), %eax
	imull	7264+arr(%rip), %eax
	imull	7268+arr(%rip), %eax
	imull	7272+arr(%rip), %eax
	imull	7276+arr(%rip), %eax
	imull	7280+arr(%rip), %eax
	imull	7284+arr(%rip), %eax
	imull	7288+arr(%rip), %eax
	imull	7292+arr(%rip), %eax
	imull	arr(%rip), %r12d
	imull	4+arr(%rip), %r12d
	imull	8+arr(%rip), %r12d
	imull	12+arr(%rip), %r12d
	imull	16+arr(%rip), %r12d
	imull	20+arr(%rip), %r12d
	imull	24+arr(%rip), %r12d
	imull	28+arr(%rip), %r12d
	imull	32+arr(%rip), %r12d
	imull	36+arr(%rip), %r12d
	imull	40+arr(%rip), %r12d
	imull	44+arr(%rip), %r12d
	imull	48+arr(%rip), %r12d
	imull	52+arr(%rip), %r12d
	imull	56+arr(%rip), %r12d
	imull	60+arr(%rip), %r12d
	imull	64+arr(%rip), %r12d
	imull	68+arr(%rip), %r12d
	imull	72+arr(%rip), %r12d
	imull	76+arr(%rip), %r12d
	imull	80+arr(%rip), %r12d
	imull	84+arr(%rip), %r12d
	imull	88+arr(%rip), %r12d
	imull	92+arr(%rip), %r12d
	imull	96+arr(%rip), %r12d
	imull	896+arr(%rip), %ebp
	imull	1696+arr(%rip), %edi
	imull	2496+arr(%rip), %r11d
	imull	3296+arr(%rip), %r10d
	imull	4096+arr(%rip), %r9d
	imull	4896+arr(%rip), %r8d
	imull	5696+arr(%rip), %ecx
	imull	6496+arr(%rip), %edx
	imull	7296+arr(%rip), %eax
	imull	900+arr(%rip), %ebp
	imull	904+arr(%rip), %ebp
	imull	908+arr(%rip), %ebp
	imull	912+arr(%rip), %ebp
	imull	916+arr(%rip), %ebp
	imull	920+arr(%rip), %ebp
	imull	924+arr(%rip), %ebp
	imull	928+arr(%rip), %ebp
	imull	932+arr(%rip), %ebp
	imull	936+arr(%rip), %ebp
	imull	940+arr(%rip), %ebp
	imull	944+arr(%rip), %ebp
	imull	948+arr(%rip), %ebp
	imull	952+arr(%rip), %ebp
	imull	956+arr(%rip), %ebp
	imull	960+arr(%rip), %ebp
	imull	964+arr(%rip), %ebp
	imull	968+arr(%rip), %ebp
	imull	972+arr(%rip), %ebp
	imull	976+arr(%rip), %ebp
	imull	980+arr(%rip), %ebp
	imull	984+arr(%rip), %ebp
	imull	988+arr(%rip), %ebp
	imull	992+arr(%rip), %ebp
	imull	1700+arr(%rip), %edi
	imull	1704+arr(%rip), %edi
	imull	1708+arr(%rip), %edi
	imull	1712+arr(%rip), %edi
	imull	1716+arr(%rip), %edi
	imull	1720+arr(%rip), %edi
	imull	1724+arr(%rip), %edi
	imull	1728+arr(%rip), %edi
	imull	1732+arr(%rip), %edi
	imull	1736+arr(%rip), %edi
	imull	1740+arr(%rip), %edi
	imull	1744+arr(%rip), %edi
	imull	1748+arr(%rip), %edi
	imull	1752+arr(%rip), %edi
	imull	1756+arr(%rip), %edi
	imull	1760+arr(%rip), %edi
	imull	1764+arr(%rip), %edi
	imull	1768+arr(%rip), %edi
	imull	1772+arr(%rip), %edi
	imull	1776+arr(%rip), %edi
	imull	1780+arr(%rip), %edi
	imull	1784+arr(%rip), %edi
	imull	1788+arr(%rip), %edi
	imull	1792+arr(%rip), %edi
	imull	2500+arr(%rip), %r11d
	imull	2504+arr(%rip), %r11d
	imull	2508+arr(%rip), %r11d
	imull	2512+arr(%rip), %r11d
	imull	2516+arr(%rip), %r11d
	imull	2520+arr(%rip), %r11d
	imull	2524+arr(%rip), %r11d
	imull	2528+arr(%rip), %r11d
	imull	2532+arr(%rip), %r11d
	imull	2536+arr(%rip), %r11d
	imull	2540+arr(%rip), %r11d
	imull	2544+arr(%rip), %r11d
	imull	2548+arr(%rip), %r11d
	imull	2552+arr(%rip), %r11d
	imull	2556+arr(%rip), %r11d
	imull	2560+arr(%rip), %r11d
	imull	2564+arr(%rip), %r11d
	imull	2568+arr(%rip), %r11d
	imull	2572+arr(%rip), %r11d
	imull	2576+arr(%rip), %r11d
	imull	2580+arr(%rip), %r11d
	imull	2584+arr(%rip), %r11d
	imull	2588+arr(%rip), %r11d
	imull	2592+arr(%rip), %r11d
	imull	3300+arr(%rip), %r10d
	imull	3304+arr(%rip), %r10d
	imull	3308+arr(%rip), %r10d
	imull	3312+arr(%rip), %r10d
	imull	3316+arr(%rip), %r10d
	imull	3320+arr(%rip), %r10d
	imull	3324+arr(%rip), %r10d
	imull	3328+arr(%rip), %r10d
	imull	3332+arr(%rip), %r10d
	imull	3336+arr(%rip), %r10d
	imull	3340+arr(%rip), %r10d
	imull	3344+arr(%rip), %r10d
	imull	3348+arr(%rip), %r10d
	imull	3352+arr(%rip), %r10d
	imull	3356+arr(%rip), %r10d
	imull	3360+arr(%rip), %r10d
	imull	3364+arr(%rip), %r10d
	imull	3368+arr(%rip), %r10d
	imull	3372+arr(%rip), %r10d
	imull	3376+arr(%rip), %r10d
	imull	3380+arr(%rip), %r10d
	imull	3384+arr(%rip), %r10d
	imull	3388+arr(%rip), %r10d
	imull	3392+arr(%rip), %r10d
	imull	4100+arr(%rip), %r9d
	imull	4104+arr(%rip), %r9d
	imull	4108+arr(%rip), %r9d
	imull	4112+arr(%rip), %r9d
	imull	4116+arr(%rip), %r9d
	imull	4120+arr(%rip), %r9d
	imull	4124+arr(%rip), %r9d
	imull	4128+arr(%rip), %r9d
	imull	4132+arr(%rip), %r9d
	imull	4136+arr(%rip), %r9d
	imull	4140+arr(%rip), %r9d
	imull	4144+arr(%rip), %r9d
	imull	4148+arr(%rip), %r9d
	imull	4152+arr(%rip), %r9d
	imull	4156+arr(%rip), %r9d
	imull	4160+arr(%rip), %r9d
	imull	4164+arr(%rip), %r9d
	imull	4168+arr(%rip), %r9d
	imull	4172+arr(%rip), %r9d
	imull	4176+arr(%rip), %r9d
	imull	4180+arr(%rip), %r9d
	imull	4184+arr(%rip), %r9d
	imull	4188+arr(%rip), %r9d
	imull	4192+arr(%rip), %r9d
	imull	4900+arr(%rip), %r8d
	imull	4904+arr(%rip), %r8d
	imull	4908+arr(%rip), %r8d
	imull	4912+arr(%rip), %r8d
	imull	4916+arr(%rip), %r8d
	imull	4920+arr(%rip), %r8d
	imull	4924+arr(%rip), %r8d
	imull	4928+arr(%rip), %r8d
	imull	4932+arr(%rip), %r8d
	imull	4936+arr(%rip), %r8d
	imull	4940+arr(%rip), %r8d
	imull	4944+arr(%rip), %r8d
	imull	4948+arr(%rip), %r8d
	imull	4952+arr(%rip), %r8d
	imull	4956+arr(%rip), %r8d
	imull	4960+arr(%rip), %r8d
	imull	4964+arr(%rip), %r8d
	imull	4968+arr(%rip), %r8d
	imull	4972+arr(%rip), %r8d
	imull	4976+arr(%rip), %r8d
	imull	4980+arr(%rip), %r8d
	imull	4984+arr(%rip), %r8d
	imull	4988+arr(%rip), %r8d
	imull	4992+arr(%rip), %r8d
	imull	5700+arr(%rip), %ecx
	imull	5704+arr(%rip), %ecx
	imull	5708+arr(%rip), %ecx
	imull	5712+arr(%rip), %ecx
	imull	5716+arr(%rip), %ecx
	imull	5720+arr(%rip), %ecx
	imull	5724+arr(%rip), %ecx
	imull	5728+arr(%rip), %ecx
	imull	5732+arr(%rip), %ecx
	imull	5736+arr(%rip), %ecx
	imull	5740+arr(%rip), %ecx
	imull	5744+arr(%rip), %ecx
	imull	5748+arr(%rip), %ecx
	imull	5752+arr(%rip), %ecx
	imull	5756+arr(%rip), %ecx
	imull	5760+arr(%rip), %ecx
	imull	5764+arr(%rip), %ecx
	imull	5768+arr(%rip), %ecx
	imull	5772+arr(%rip), %ecx
	imull	5776+arr(%rip), %ecx
	imull	5780+arr(%rip), %ecx
	imull	5784+arr(%rip), %ecx
	imull	5788+arr(%rip), %ecx
	imull	5792+arr(%rip), %ecx
	imull	6500+arr(%rip), %edx
	imull	6504+arr(%rip), %edx
	imull	6508+arr(%rip), %edx
	imull	6512+arr(%rip), %edx
	imull	6516+arr(%rip), %edx
	imull	6520+arr(%rip), %edx
	imull	6524+arr(%rip), %edx
	imull	6528+arr(%rip), %edx
	imull	6532+arr(%rip), %edx
	imull	6536+arr(%rip), %edx
	imull	6540+arr(%rip), %edx
	imull	6544+arr(%rip), %edx
	imull	6548+arr(%rip), %edx
	imull	6552+arr(%rip), %edx
	imull	6556+arr(%rip), %edx
	imull	6560+arr(%rip), %edx
	imull	6564+arr(%rip), %edx
	imull	6568+arr(%rip), %edx
	imull	6572+arr(%rip), %edx
	imull	6576+arr(%rip), %edx
	imull	6580+arr(%rip), %edx
	imull	6584+arr(%rip), %edx
	imull	6588+arr(%rip), %edx
	imull	6592+arr(%rip), %edx
	imull	7300+arr(%rip), %eax
	imull	7304+arr(%rip), %eax
	imull	7308+arr(%rip), %eax
	imull	7312+arr(%rip), %eax
	imull	7316+arr(%rip), %eax
	imull	7320+arr(%rip), %eax
	imull	7324+arr(%rip), %eax
	imull	7328+arr(%rip), %eax
	imull	7332+arr(%rip), %eax
	imull	7336+arr(%rip), %eax
	imull	7340+arr(%rip), %eax
	imull	7344+arr(%rip), %eax
	imull	7348+arr(%rip), %eax
	imull	7352+arr(%rip), %eax
	imull	7356+arr(%rip), %eax
	imull	7360+arr(%rip), %eax
	imull	7364+arr(%rip), %eax
	imull	7368+arr(%rip), %eax
	imull	7372+arr(%rip), %eax
	imull	7376+arr(%rip), %eax
	imull	7380+arr(%rip), %eax
	imull	7384+arr(%rip), %eax
	imull	7388+arr(%rip), %eax
	imull	7392+arr(%rip), %eax
	imull	100+arr(%rip), %r12d
	imull	104+arr(%rip), %r12d
	imull	108+arr(%rip), %r12d
	imull	112+arr(%rip), %r12d
	imull	116+arr(%rip), %r12d
	imull	120+arr(%rip), %r12d
	imull	124+arr(%rip), %r12d
	imull	128+arr(%rip), %r12d
	imull	132+arr(%rip), %r12d
	imull	136+arr(%rip), %r12d
	imull	140+arr(%rip), %r12d
	imull	144+arr(%rip), %r12d
	imull	148+arr(%rip), %r12d
	imull	152+arr(%rip), %r12d
	imull	156+arr(%rip), %r12d
	imull	160+arr(%rip), %r12d
	imull	164+arr(%rip), %r12d
	imull	168+arr(%rip), %r12d
	imull	172+arr(%rip), %r12d
	imull	176+arr(%rip), %r12d
	imull	180+arr(%rip), %r12d
	imull	184+arr(%rip), %r12d
	imull	188+arr(%rip), %r12d
	imull	192+arr(%rip), %r12d
	imull	196+arr(%rip), %r12d
	imull	996+arr(%rip), %ebp
	imull	1796+arr(%rip), %edi
	imull	2596+arr(%rip), %r11d
	imull	3396+arr(%rip), %r10d
	imull	4196+arr(%rip), %r9d
	imull	4996+arr(%rip), %r8d
	imull	5796+arr(%rip), %ecx
	imull	6596+arr(%rip), %edx
	imull	7396+arr(%rip), %eax
	imull	1000+arr(%rip), %ebp
	imull	1004+arr(%rip), %ebp
	imull	1008+arr(%rip), %ebp
	imull	1012+arr(%rip), %ebp
	imull	1016+arr(%rip), %ebp
	imull	1020+arr(%rip), %ebp
	imull	1024+arr(%rip), %ebp
	imull	1028+arr(%rip), %ebp
	imull	1032+arr(%rip), %ebp
	imull	1036+arr(%rip), %ebp
	imull	1040+arr(%rip), %ebp
	imull	1044+arr(%rip), %ebp
	imull	1048+arr(%rip), %ebp
	imull	1052+arr(%rip), %ebp
	imull	1056+arr(%rip), %ebp
	imull	1060+arr(%rip), %ebp
	imull	1064+arr(%rip), %ebp
	imull	1068+arr(%rip), %ebp
	imull	1072+arr(%rip), %ebp
	imull	1076+arr(%rip), %ebp
	imull	1080+arr(%rip), %ebp
	imull	1084+arr(%rip), %ebp
	imull	1088+arr(%rip), %ebp
	imull	1092+arr(%rip), %ebp
	imull	1800+arr(%rip), %edi
	imull	1804+arr(%rip), %edi
	imull	1808+arr(%rip), %edi
	imull	1812+arr(%rip), %edi
	imull	1816+arr(%rip), %edi
	imull	1820+arr(%rip), %edi
	imull	1824+arr(%rip), %edi
	imull	1828+arr(%rip), %edi
	imull	1832+arr(%rip), %edi
	imull	1836+arr(%rip), %edi
	imull	1840+arr(%rip), %edi
	imull	1844+arr(%rip), %edi
	imull	1848+arr(%rip), %edi
	imull	1852+arr(%rip), %edi
	imull	1856+arr(%rip), %edi
	imull	1860+arr(%rip), %edi
	imull	1864+arr(%rip), %edi
	imull	1868+arr(%rip), %edi
	imull	1872+arr(%rip), %edi
	imull	1876+arr(%rip), %edi
	imull	1880+arr(%rip), %edi
	imull	1884+arr(%rip), %edi
	imull	1888+arr(%rip), %edi
	imull	1892+arr(%rip), %edi
	imull	2600+arr(%rip), %r11d
	imull	2604+arr(%rip), %r11d
	imull	2608+arr(%rip), %r11d
	imull	2612+arr(%rip), %r11d
	imull	2616+arr(%rip), %r11d
	imull	2620+arr(%rip), %r11d
	imull	2624+arr(%rip), %r11d
	imull	2628+arr(%rip), %r11d
	imull	2632+arr(%rip), %r11d
	imull	2636+arr(%rip), %r11d
	imull	2640+arr(%rip), %r11d
	imull	2644+arr(%rip), %r11d
	imull	2648+arr(%rip), %r11d
	imull	2652+arr(%rip), %r11d
	imull	2656+arr(%rip), %r11d
	imull	2660+arr(%rip), %r11d
	imull	2664+arr(%rip), %r11d
	imull	2668+arr(%rip), %r11d
	imull	2672+arr(%rip), %r11d
	imull	2676+arr(%rip), %r11d
	imull	2680+arr(%rip), %r11d
	imull	2684+arr(%rip), %r11d
	imull	2688+arr(%rip), %r11d
	imull	2692+arr(%rip), %r11d
	imull	3400+arr(%rip), %r10d
	imull	3404+arr(%rip), %r10d
	imull	3408+arr(%rip), %r10d
	imull	3412+arr(%rip), %r10d
	imull	3416+arr(%rip), %r10d
	imull	3420+arr(%rip), %r10d
	imull	3424+arr(%rip), %r10d
	imull	3428+arr(%rip), %r10d
	imull	3432+arr(%rip), %r10d
	imull	3436+arr(%rip), %r10d
	imull	3440+arr(%rip), %r10d
	imull	3444+arr(%rip), %r10d
	imull	3448+arr(%rip), %r10d
	imull	3452+arr(%rip), %r10d
	imull	3456+arr(%rip), %r10d
	imull	3460+arr(%rip), %r10d
	imull	3464+arr(%rip), %r10d
	imull	3468+arr(%rip), %r10d
	imull	3472+arr(%rip), %r10d
	imull	3476+arr(%rip), %r10d
	imull	3480+arr(%rip), %r10d
	imull	3484+arr(%rip), %r10d
	imull	3488+arr(%rip), %r10d
	imull	3492+arr(%rip), %r10d
	imull	4200+arr(%rip), %r9d
	imull	4204+arr(%rip), %r9d
	imull	4208+arr(%rip), %r9d
	imull	4212+arr(%rip), %r9d
	imull	4216+arr(%rip), %r9d
	imull	4220+arr(%rip), %r9d
	imull	4224+arr(%rip), %r9d
	imull	4228+arr(%rip), %r9d
	imull	4232+arr(%rip), %r9d
	imull	4236+arr(%rip), %r9d
	imull	4240+arr(%rip), %r9d
	imull	4244+arr(%rip), %r9d
	imull	4248+arr(%rip), %r9d
	imull	4252+arr(%rip), %r9d
	imull	4256+arr(%rip), %r9d
	imull	4260+arr(%rip), %r9d
	imull	4264+arr(%rip), %r9d
	imull	4268+arr(%rip), %r9d
	imull	4272+arr(%rip), %r9d
	imull	4276+arr(%rip), %r9d
	imull	4280+arr(%rip), %r9d
	imull	4284+arr(%rip), %r9d
	imull	4288+arr(%rip), %r9d
	imull	4292+arr(%rip), %r9d
	imull	5000+arr(%rip), %r8d
	imull	5004+arr(%rip), %r8d
	imull	5008+arr(%rip), %r8d
	imull	5012+arr(%rip), %r8d
	imull	5016+arr(%rip), %r8d
	imull	5020+arr(%rip), %r8d
	imull	5024+arr(%rip), %r8d
	imull	5028+arr(%rip), %r8d
	imull	5032+arr(%rip), %r8d
	imull	5036+arr(%rip), %r8d
	imull	5040+arr(%rip), %r8d
	imull	5044+arr(%rip), %r8d
	imull	5048+arr(%rip), %r8d
	imull	5052+arr(%rip), %r8d
	imull	5056+arr(%rip), %r8d
	imull	5060+arr(%rip), %r8d
	imull	5064+arr(%rip), %r8d
	imull	5068+arr(%rip), %r8d
	imull	5072+arr(%rip), %r8d
	imull	5076+arr(%rip), %r8d
	imull	5080+arr(%rip), %r8d
	imull	5084+arr(%rip), %r8d
	imull	5088+arr(%rip), %r8d
	imull	5092+arr(%rip), %r8d
	imull	5800+arr(%rip), %ecx
	imull	5804+arr(%rip), %ecx
	imull	5808+arr(%rip), %ecx
	imull	5812+arr(%rip), %ecx
	imull	5816+arr(%rip), %ecx
	imull	5820+arr(%rip), %ecx
	imull	5824+arr(%rip), %ecx
	imull	5828+arr(%rip), %ecx
	imull	5832+arr(%rip), %ecx
	imull	5836+arr(%rip), %ecx
	imull	5840+arr(%rip), %ecx
	imull	5844+arr(%rip), %ecx
	imull	5848+arr(%rip), %ecx
	imull	5852+arr(%rip), %ecx
	imull	5856+arr(%rip), %ecx
	imull	5860+arr(%rip), %ecx
	imull	5864+arr(%rip), %ecx
	imull	5868+arr(%rip), %ecx
	imull	5872+arr(%rip), %ecx
	imull	5876+arr(%rip), %ecx
	imull	5880+arr(%rip), %ecx
	imull	5884+arr(%rip), %ecx
	imull	5888+arr(%rip), %ecx
	imull	5892+arr(%rip), %ecx
	imull	6600+arr(%rip), %edx
	imull	6604+arr(%rip), %edx
	imull	6608+arr(%rip), %edx
	imull	6612+arr(%rip), %edx
	imull	6616+arr(%rip), %edx
	imull	6620+arr(%rip), %edx
	imull	6624+arr(%rip), %edx
	imull	6628+arr(%rip), %edx
	imull	6632+arr(%rip), %edx
	imull	6636+arr(%rip), %edx
	imull	6640+arr(%rip), %edx
	imull	6644+arr(%rip), %edx
	imull	6648+arr(%rip), %edx
	imull	6652+arr(%rip), %edx
	imull	6656+arr(%rip), %edx
	imull	6660+arr(%rip), %edx
	imull	6664+arr(%rip), %edx
	imull	6668+arr(%rip), %edx
	imull	6672+arr(%rip), %edx
	imull	6676+arr(%rip), %edx
	imull	6680+arr(%rip), %edx
	imull	6684+arr(%rip), %edx
	imull	6688+arr(%rip), %edx
	imull	6692+arr(%rip), %edx
	imull	7400+arr(%rip), %eax
	imull	7404+arr(%rip), %eax
	imull	7408+arr(%rip), %eax
	imull	7412+arr(%rip), %eax
	imull	7416+arr(%rip), %eax
	imull	7420+arr(%rip), %eax
	imull	7424+arr(%rip), %eax
	imull	7428+arr(%rip), %eax
	imull	7432+arr(%rip), %eax
	imull	7436+arr(%rip), %eax
	imull	7440+arr(%rip), %eax
	imull	7444+arr(%rip), %eax
	imull	7448+arr(%rip), %eax
	imull	7452+arr(%rip), %eax
	imull	7456+arr(%rip), %eax
	imull	7460+arr(%rip), %eax
	imull	7464+arr(%rip), %eax
	imull	7468+arr(%rip), %eax
	imull	7472+arr(%rip), %eax
	imull	7476+arr(%rip), %eax
	imull	7480+arr(%rip), %eax
	imull	7484+arr(%rip), %eax
	imull	7488+arr(%rip), %eax
	imull	7492+arr(%rip), %eax
	imull	200+arr(%rip), %r12d
	imull	204+arr(%rip), %r12d
	imull	208+arr(%rip), %r12d
	imull	212+arr(%rip), %r12d
	imull	216+arr(%rip), %r12d
	imull	220+arr(%rip), %r12d
	imull	224+arr(%rip), %r12d
	imull	228+arr(%rip), %r12d
	imull	232+arr(%rip), %r12d
	imull	236+arr(%rip), %r12d
	imull	240+arr(%rip), %r12d
	imull	244+arr(%rip), %r12d
	imull	248+arr(%rip), %r12d
	imull	252+arr(%rip), %r12d
	imull	256+arr(%rip), %r12d
	imull	260+arr(%rip), %r12d
	imull	264+arr(%rip), %r12d
	imull	268+arr(%rip), %r12d
	imull	272+arr(%rip), %r12d
	imull	276+arr(%rip), %r12d
	imull	280+arr(%rip), %r12d
	imull	284+arr(%rip), %r12d
	imull	288+arr(%rip), %r12d
	imull	292+arr(%rip), %r12d
	imull	296+arr(%rip), %r12d
	imull	1096+arr(%rip), %ebp
	imull	1896+arr(%rip), %edi
	imull	2696+arr(%rip), %r11d
	imull	3496+arr(%rip), %r10d
	imull	4296+arr(%rip), %r9d
	imull	5096+arr(%rip), %r8d
	imull	5896+arr(%rip), %ecx
	imull	6696+arr(%rip), %edx
	imull	7496+arr(%rip), %eax
	imull	1100+arr(%rip), %ebp
	imull	1104+arr(%rip), %ebp
	imull	1108+arr(%rip), %ebp
	imull	1112+arr(%rip), %ebp
	imull	1116+arr(%rip), %ebp
	imull	1120+arr(%rip), %ebp
	imull	1124+arr(%rip), %ebp
	imull	1128+arr(%rip), %ebp
	imull	1132+arr(%rip), %ebp
	imull	1136+arr(%rip), %ebp
	imull	1140+arr(%rip), %ebp
	imull	1144+arr(%rip), %ebp
	imull	1148+arr(%rip), %ebp
	imull	1152+arr(%rip), %ebp
	imull	1156+arr(%rip), %ebp
	imull	1160+arr(%rip), %ebp
	imull	1164+arr(%rip), %ebp
	imull	1168+arr(%rip), %ebp
	imull	1172+arr(%rip), %ebp
	imull	1176+arr(%rip), %ebp
	imull	1180+arr(%rip), %ebp
	imull	1184+arr(%rip), %ebp
	imull	1188+arr(%rip), %ebp
	imull	1192+arr(%rip), %ebp
	imull	1900+arr(%rip), %edi
	imull	1904+arr(%rip), %edi
	imull	1908+arr(%rip), %edi
	imull	1912+arr(%rip), %edi
	imull	1916+arr(%rip), %edi
	imull	1920+arr(%rip), %edi
	imull	1924+arr(%rip), %edi
	imull	1928+arr(%rip), %edi
	imull	1932+arr(%rip), %edi
	imull	1936+arr(%rip), %edi
	imull	1940+arr(%rip), %edi
	imull	1944+arr(%rip), %edi
	imull	1948+arr(%rip), %edi
	imull	1952+arr(%rip), %edi
	imull	1956+arr(%rip), %edi
	imull	1960+arr(%rip), %edi
	imull	1964+arr(%rip), %edi
	imull	1968+arr(%rip), %edi
	imull	1972+arr(%rip), %edi
	imull	1976+arr(%rip), %edi
	imull	1980+arr(%rip), %edi
	imull	1984+arr(%rip), %edi
	imull	1988+arr(%rip), %edi
	imull	1992+arr(%rip), %edi
	imull	2700+arr(%rip), %r11d
	imull	2704+arr(%rip), %r11d
	imull	2708+arr(%rip), %r11d
	imull	2712+arr(%rip), %r11d
	imull	2716+arr(%rip), %r11d
	imull	2720+arr(%rip), %r11d
	imull	2724+arr(%rip), %r11d
	imull	2728+arr(%rip), %r11d
	imull	2732+arr(%rip), %r11d
	imull	2736+arr(%rip), %r11d
	imull	2740+arr(%rip), %r11d
	imull	2744+arr(%rip), %r11d
	imull	2748+arr(%rip), %r11d
	imull	2752+arr(%rip), %r11d
	imull	2756+arr(%rip), %r11d
	imull	2760+arr(%rip), %r11d
	imull	2764+arr(%rip), %r11d
	imull	2768+arr(%rip), %r11d
	imull	2772+arr(%rip), %r11d
	imull	2776+arr(%rip), %r11d
	imull	2780+arr(%rip), %r11d
	imull	2784+arr(%rip), %r11d
	imull	2788+arr(%rip), %r11d
	imull	2792+arr(%rip), %r11d
	imull	3500+arr(%rip), %r10d
	imull	3504+arr(%rip), %r10d
	imull	3508+arr(%rip), %r10d
	imull	3512+arr(%rip), %r10d
	imull	3516+arr(%rip), %r10d
	imull	3520+arr(%rip), %r10d
	imull	3524+arr(%rip), %r10d
	imull	3528+arr(%rip), %r10d
	imull	3532+arr(%rip), %r10d
	imull	3536+arr(%rip), %r10d
	imull	3540+arr(%rip), %r10d
	imull	3544+arr(%rip), %r10d
	imull	3548+arr(%rip), %r10d
	imull	3552+arr(%rip), %r10d
	imull	3556+arr(%rip), %r10d
	imull	3560+arr(%rip), %r10d
	imull	3564+arr(%rip), %r10d
	imull	3568+arr(%rip), %r10d
	imull	3572+arr(%rip), %r10d
	imull	3576+arr(%rip), %r10d
	imull	3580+arr(%rip), %r10d
	imull	3584+arr(%rip), %r10d
	imull	3588+arr(%rip), %r10d
	imull	3592+arr(%rip), %r10d
	imull	4300+arr(%rip), %r9d
	imull	4304+arr(%rip), %r9d
	imull	4308+arr(%rip), %r9d
	imull	4312+arr(%rip), %r9d
	imull	4316+arr(%rip), %r9d
	imull	4320+arr(%rip), %r9d
	imull	4324+arr(%rip), %r9d
	imull	4328+arr(%rip), %r9d
	imull	4332+arr(%rip), %r9d
	imull	4336+arr(%rip), %r9d
	imull	4340+arr(%rip), %r9d
	imull	4344+arr(%rip), %r9d
	imull	4348+arr(%rip), %r9d
	imull	4352+arr(%rip), %r9d
	imull	4356+arr(%rip), %r9d
	imull	4360+arr(%rip), %r9d
	imull	4364+arr(%rip), %r9d
	imull	4368+arr(%rip), %r9d
	imull	4372+arr(%rip), %r9d
	imull	4376+arr(%rip), %r9d
	imull	4380+arr(%rip), %r9d
	imull	4384+arr(%rip), %r9d
	imull	4388+arr(%rip), %r9d
	imull	4392+arr(%rip), %r9d
	imull	5100+arr(%rip), %r8d
	imull	5104+arr(%rip), %r8d
	imull	5108+arr(%rip), %r8d
	imull	5112+arr(%rip), %r8d
	imull	5116+arr(%rip), %r8d
	imull	5120+arr(%rip), %r8d
	imull	5124+arr(%rip), %r8d
	imull	5128+arr(%rip), %r8d
	imull	5132+arr(%rip), %r8d
	imull	5136+arr(%rip), %r8d
	imull	5140+arr(%rip), %r8d
	imull	5144+arr(%rip), %r8d
	imull	5148+arr(%rip), %r8d
	imull	5152+arr(%rip), %r8d
	imull	5156+arr(%rip), %r8d
	imull	5160+arr(%rip), %r8d
	imull	5164+arr(%rip), %r8d
	imull	5168+arr(%rip), %r8d
	imull	5172+arr(%rip), %r8d
	imull	5176+arr(%rip), %r8d
	imull	5180+arr(%rip), %r8d
	imull	5184+arr(%rip), %r8d
	imull	5188+arr(%rip), %r8d
	imull	5192+arr(%rip), %r8d
	imull	5900+arr(%rip), %ecx
	imull	5904+arr(%rip), %ecx
	imull	5908+arr(%rip), %ecx
	imull	5912+arr(%rip), %ecx
	imull	5916+arr(%rip), %ecx
	imull	5920+arr(%rip), %ecx
	imull	5924+arr(%rip), %ecx
	imull	5928+arr(%rip), %ecx
	imull	5932+arr(%rip), %ecx
	imull	5936+arr(%rip), %ecx
	imull	5940+arr(%rip), %ecx
	imull	5944+arr(%rip), %ecx
	imull	5948+arr(%rip), %ecx
	imull	5952+arr(%rip), %ecx
	imull	5956+arr(%rip), %ecx
	imull	5960+arr(%rip), %ecx
	imull	5964+arr(%rip), %ecx
	imull	5968+arr(%rip), %ecx
	imull	5972+arr(%rip), %ecx
	imull	5976+arr(%rip), %ecx
	imull	5980+arr(%rip), %ecx
	imull	5984+arr(%rip), %ecx
	imull	5988+arr(%rip), %ecx
	imull	5992+arr(%rip), %ecx
	imull	6700+arr(%rip), %edx
	imull	6704+arr(%rip), %edx
	imull	6708+arr(%rip), %edx
	imull	6712+arr(%rip), %edx
	imull	6716+arr(%rip), %edx
	imull	6720+arr(%rip), %edx
	imull	6724+arr(%rip), %edx
	imull	6728+arr(%rip), %edx
	imull	6732+arr(%rip), %edx
	imull	6736+arr(%rip), %edx
	imull	6740+arr(%rip), %edx
	imull	6744+arr(%rip), %edx
	imull	6748+arr(%rip), %edx
	imull	6752+arr(%rip), %edx
	imull	6756+arr(%rip), %edx
	imull	6760+arr(%rip), %edx
	imull	6764+arr(%rip), %edx
	imull	6768+arr(%rip), %edx
	imull	6772+arr(%rip), %edx
	imull	6776+arr(%rip), %edx
	imull	6780+arr(%rip), %edx
	imull	6784+arr(%rip), %edx
	imull	6788+arr(%rip), %edx
	imull	6792+arr(%rip), %edx
	imull	7500+arr(%rip), %eax
	imull	7504+arr(%rip), %eax
	imull	7508+arr(%rip), %eax
	imull	7512+arr(%rip), %eax
	imull	7516+arr(%rip), %eax
	imull	7520+arr(%rip), %eax
	imull	7524+arr(%rip), %eax
	imull	7528+arr(%rip), %eax
	imull	7532+arr(%rip), %eax
	imull	7536+arr(%rip), %eax
	imull	7540+arr(%rip), %eax
	imull	7544+arr(%rip), %eax
	imull	7548+arr(%rip), %eax
	imull	7552+arr(%rip), %eax
	imull	7556+arr(%rip), %eax
	imull	7560+arr(%rip), %eax
	imull	7564+arr(%rip), %eax
	imull	7568+arr(%rip), %eax
	imull	7572+arr(%rip), %eax
	imull	7576+arr(%rip), %eax
	imull	7580+arr(%rip), %eax
	imull	7584+arr(%rip), %eax
	imull	7588+arr(%rip), %eax
	imull	7592+arr(%rip), %eax
	imull	300+arr(%rip), %r12d
	imull	304+arr(%rip), %r12d
	imull	308+arr(%rip), %r12d
	imull	312+arr(%rip), %r12d
	imull	316+arr(%rip), %r12d
	imull	320+arr(%rip), %r12d
	imull	324+arr(%rip), %r12d
	imull	328+arr(%rip), %r12d
	imull	332+arr(%rip), %r12d
	imull	336+arr(%rip), %r12d
	imull	340+arr(%rip), %r12d
	imull	344+arr(%rip), %r12d
	imull	348+arr(%rip), %r12d
	imull	352+arr(%rip), %r12d
	imull	356+arr(%rip), %r12d
	imull	360+arr(%rip), %r12d
	imull	364+arr(%rip), %r12d
	imull	368+arr(%rip), %r12d
	imull	372+arr(%rip), %r12d
	imull	376+arr(%rip), %r12d
	imull	380+arr(%rip), %r12d
	imull	384+arr(%rip), %r12d
	imull	388+arr(%rip), %r12d
	imull	392+arr(%rip), %r12d
	imull	396+arr(%rip), %r12d
	imull	1196+arr(%rip), %ebp
	imull	1996+arr(%rip), %edi
	imull	2796+arr(%rip), %r11d
	imull	3596+arr(%rip), %r10d
	imull	4396+arr(%rip), %r9d
	imull	5196+arr(%rip), %r8d
	imull	5996+arr(%rip), %ecx
	imull	6796+arr(%rip), %edx
	imull	7596+arr(%rip), %eax
	imull	1200+arr(%rip), %ebp
	imull	1204+arr(%rip), %ebp
	imull	1208+arr(%rip), %ebp
	imull	1212+arr(%rip), %ebp
	imull	1216+arr(%rip), %ebp
	imull	1220+arr(%rip), %ebp
	imull	1224+arr(%rip), %ebp
	imull	1228+arr(%rip), %ebp
	imull	1232+arr(%rip), %ebp
	imull	1236+arr(%rip), %ebp
	imull	1240+arr(%rip), %ebp
	imull	1244+arr(%rip), %ebp
	imull	1248+arr(%rip), %ebp
	imull	1252+arr(%rip), %ebp
	imull	1256+arr(%rip), %ebp
	imull	1260+arr(%rip), %ebp
	imull	1264+arr(%rip), %ebp
	imull	1268+arr(%rip), %ebp
	imull	1272+arr(%rip), %ebp
	imull	1276+arr(%rip), %ebp
	imull	1280+arr(%rip), %ebp
	imull	1284+arr(%rip), %ebp
	imull	1288+arr(%rip), %ebp
	imull	1292+arr(%rip), %ebp
	imull	2000+arr(%rip), %edi
	imull	2004+arr(%rip), %edi
	imull	2008+arr(%rip), %edi
	imull	2012+arr(%rip), %edi
	imull	2016+arr(%rip), %edi
	imull	2020+arr(%rip), %edi
	imull	2024+arr(%rip), %edi
	imull	2028+arr(%rip), %edi
	imull	2032+arr(%rip), %edi
	imull	2036+arr(%rip), %edi
	imull	2040+arr(%rip), %edi
	imull	2044+arr(%rip), %edi
	imull	2048+arr(%rip), %edi
	imull	2052+arr(%rip), %edi
	imull	2056+arr(%rip), %edi
	imull	2060+arr(%rip), %edi
	imull	2064+arr(%rip), %edi
	imull	2068+arr(%rip), %edi
	imull	2072+arr(%rip), %edi
	imull	2076+arr(%rip), %edi
	imull	2080+arr(%rip), %edi
	imull	2084+arr(%rip), %edi
	imull	2088+arr(%rip), %edi
	imull	2092+arr(%rip), %edi
	imull	2800+arr(%rip), %r11d
	imull	2804+arr(%rip), %r11d
	imull	2808+arr(%rip), %r11d
	imull	2812+arr(%rip), %r11d
	imull	2816+arr(%rip), %r11d
	imull	2820+arr(%rip), %r11d
	imull	2824+arr(%rip), %r11d
	imull	2828+arr(%rip), %r11d
	imull	2832+arr(%rip), %r11d
	imull	2836+arr(%rip), %r11d
	imull	2840+arr(%rip), %r11d
	imull	2844+arr(%rip), %r11d
	imull	2848+arr(%rip), %r11d
	imull	2852+arr(%rip), %r11d
	imull	2856+arr(%rip), %r11d
	imull	2860+arr(%rip), %r11d
	imull	2864+arr(%rip), %r11d
	imull	2868+arr(%rip), %r11d
	imull	2872+arr(%rip), %r11d
	imull	2876+arr(%rip), %r11d
	imull	2880+arr(%rip), %r11d
	imull	2884+arr(%rip), %r11d
	imull	2888+arr(%rip), %r11d
	imull	2892+arr(%rip), %r11d
	imull	3600+arr(%rip), %r10d
	imull	3604+arr(%rip), %r10d
	imull	3608+arr(%rip), %r10d
	imull	3612+arr(%rip), %r10d
	imull	3616+arr(%rip), %r10d
	imull	3620+arr(%rip), %r10d
	imull	3624+arr(%rip), %r10d
	imull	3628+arr(%rip), %r10d
	imull	3632+arr(%rip), %r10d
	imull	3636+arr(%rip), %r10d
	imull	3640+arr(%rip), %r10d
	imull	3644+arr(%rip), %r10d
	imull	3648+arr(%rip), %r10d
	imull	3652+arr(%rip), %r10d
	imull	3656+arr(%rip), %r10d
	imull	3660+arr(%rip), %r10d
	imull	3664+arr(%rip), %r10d
	imull	3668+arr(%rip), %r10d
	imull	3672+arr(%rip), %r10d
	imull	3676+arr(%rip), %r10d
	imull	3680+arr(%rip), %r10d
	imull	3684+arr(%rip), %r10d
	imull	3688+arr(%rip), %r10d
	imull	3692+arr(%rip), %r10d
	imull	4400+arr(%rip), %r9d
	imull	4404+arr(%rip), %r9d
	imull	4408+arr(%rip), %r9d
	imull	4412+arr(%rip), %r9d
	imull	4416+arr(%rip), %r9d
	imull	4420+arr(%rip), %r9d
	imull	4424+arr(%rip), %r9d
	imull	4428+arr(%rip), %r9d
	imull	4432+arr(%rip), %r9d
	imull	4436+arr(%rip), %r9d
	imull	4440+arr(%rip), %r9d
	imull	4444+arr(%rip), %r9d
	imull	4448+arr(%rip), %r9d
	imull	4452+arr(%rip), %r9d
	imull	4456+arr(%rip), %r9d
	imull	4460+arr(%rip), %r9d
	imull	4464+arr(%rip), %r9d
	imull	4468+arr(%rip), %r9d
	imull	4472+arr(%rip), %r9d
	imull	4476+arr(%rip), %r9d
	imull	4480+arr(%rip), %r9d
	imull	4484+arr(%rip), %r9d
	imull	4488+arr(%rip), %r9d
	imull	4492+arr(%rip), %r9d
	imull	5200+arr(%rip), %r8d
	imull	5204+arr(%rip), %r8d
	imull	5208+arr(%rip), %r8d
	imull	5212+arr(%rip), %r8d
	imull	5216+arr(%rip), %r8d
	imull	5220+arr(%rip), %r8d
	imull	5224+arr(%rip), %r8d
	imull	5228+arr(%rip), %r8d
	imull	5232+arr(%rip), %r8d
	imull	5236+arr(%rip), %r8d
	imull	5240+arr(%rip), %r8d
	imull	5244+arr(%rip), %r8d
	imull	5248+arr(%rip), %r8d
	imull	5252+arr(%rip), %r8d
	imull	5256+arr(%rip), %r8d
	imull	5260+arr(%rip), %r8d
	imull	5264+arr(%rip), %r8d
	imull	5268+arr(%rip), %r8d
	imull	5272+arr(%rip), %r8d
	imull	5276+arr(%rip), %r8d
	imull	5280+arr(%rip), %r8d
	imull	5284+arr(%rip), %r8d
	imull	5288+arr(%rip), %r8d
	imull	5292+arr(%rip), %r8d
	imull	6000+arr(%rip), %ecx
	imull	6004+arr(%rip), %ecx
	imull	6008+arr(%rip), %ecx
	imull	6012+arr(%rip), %ecx
	imull	6016+arr(%rip), %ecx
	imull	6020+arr(%rip), %ecx
	imull	6024+arr(%rip), %ecx
	imull	6028+arr(%rip), %ecx
	imull	6032+arr(%rip), %ecx
	imull	6036+arr(%rip), %ecx
	imull	6040+arr(%rip), %ecx
	imull	6044+arr(%rip), %ecx
	imull	6048+arr(%rip), %ecx
	imull	6052+arr(%rip), %ecx
	imull	6056+arr(%rip), %ecx
	imull	6060+arr(%rip), %ecx
	imull	6064+arr(%rip), %ecx
	imull	6068+arr(%rip), %ecx
	imull	6072+arr(%rip), %ecx
	imull	6076+arr(%rip), %ecx
	imull	6080+arr(%rip), %ecx
	imull	6084+arr(%rip), %ecx
	imull	6088+arr(%rip), %ecx
	imull	6092+arr(%rip), %ecx
	imull	6800+arr(%rip), %edx
	imull	6804+arr(%rip), %edx
	imull	6808+arr(%rip), %edx
	imull	6812+arr(%rip), %edx
	imull	6816+arr(%rip), %edx
	imull	6820+arr(%rip), %edx
	imull	6824+arr(%rip), %edx
	imull	6828+arr(%rip), %edx
	imull	6832+arr(%rip), %edx
	imull	6836+arr(%rip), %edx
	imull	6840+arr(%rip), %edx
	imull	6844+arr(%rip), %edx
	imull	6848+arr(%rip), %edx
	imull	6852+arr(%rip), %edx
	imull	6856+arr(%rip), %edx
	imull	6860+arr(%rip), %edx
	imull	6864+arr(%rip), %edx
	imull	6868+arr(%rip), %edx
	imull	6872+arr(%rip), %edx
	imull	6876+arr(%rip), %edx
	imull	6880+arr(%rip), %edx
	imull	6884+arr(%rip), %edx
	imull	6888+arr(%rip), %edx
	imull	6892+arr(%rip), %edx
	imull	7600+arr(%rip), %eax
	imull	7604+arr(%rip), %eax
	imull	7608+arr(%rip), %eax
	imull	7612+arr(%rip), %eax
	imull	7616+arr(%rip), %eax
	imull	7620+arr(%rip), %eax
	imull	7624+arr(%rip), %eax
	imull	7628+arr(%rip), %eax
	imull	7632+arr(%rip), %eax
	imull	7636+arr(%rip), %eax
	imull	7640+arr(%rip), %eax
	imull	7644+arr(%rip), %eax
	imull	7648+arr(%rip), %eax
	imull	7652+arr(%rip), %eax
	imull	7656+arr(%rip), %eax
	imull	7660+arr(%rip), %eax
	imull	7664+arr(%rip), %eax
	imull	7668+arr(%rip), %eax
	imull	7672+arr(%rip), %eax
	imull	7676+arr(%rip), %eax
	imull	7680+arr(%rip), %eax
	imull	7684+arr(%rip), %eax
	imull	7688+arr(%rip), %eax
	imull	7692+arr(%rip), %eax
	imull	400+arr(%rip), %r12d
	imull	404+arr(%rip), %r12d
	imull	408+arr(%rip), %r12d
	imull	412+arr(%rip), %r12d
	imull	416+arr(%rip), %r12d
	imull	420+arr(%rip), %r12d
	imull	424+arr(%rip), %r12d
	imull	428+arr(%rip), %r12d
	imull	432+arr(%rip), %r12d
	imull	436+arr(%rip), %r12d
	imull	440+arr(%rip), %r12d
	imull	444+arr(%rip), %r12d
	imull	448+arr(%rip), %r12d
	imull	452+arr(%rip), %r12d
	imull	456+arr(%rip), %r12d
	imull	460+arr(%rip), %r12d
	imull	464+arr(%rip), %r12d
	imull	468+arr(%rip), %r12d
	imull	472+arr(%rip), %r12d
	imull	476+arr(%rip), %r12d
	imull	480+arr(%rip), %r12d
	imull	484+arr(%rip), %r12d
	imull	488+arr(%rip), %r12d
	imull	492+arr(%rip), %r12d
	imull	496+arr(%rip), %r12d
	imull	1296+arr(%rip), %ebp
	imull	2096+arr(%rip), %edi
	imull	2896+arr(%rip), %r11d
	imull	3696+arr(%rip), %r10d
	imull	4496+arr(%rip), %r9d
	imull	5296+arr(%rip), %r8d
	imull	6096+arr(%rip), %ecx
	imull	6896+arr(%rip), %edx
	imull	7696+arr(%rip), %eax
	imull	1300+arr(%rip), %ebp
	imull	1304+arr(%rip), %ebp
	imull	1308+arr(%rip), %ebp
	imull	1312+arr(%rip), %ebp
	imull	1316+arr(%rip), %ebp
	imull	1320+arr(%rip), %ebp
	imull	1324+arr(%rip), %ebp
	imull	1328+arr(%rip), %ebp
	imull	1332+arr(%rip), %ebp
	imull	1336+arr(%rip), %ebp
	imull	1340+arr(%rip), %ebp
	imull	1344+arr(%rip), %ebp
	imull	1348+arr(%rip), %ebp
	imull	1352+arr(%rip), %ebp
	imull	1356+arr(%rip), %ebp
	imull	1360+arr(%rip), %ebp
	imull	1364+arr(%rip), %ebp
	imull	1368+arr(%rip), %ebp
	imull	1372+arr(%rip), %ebp
	imull	1376+arr(%rip), %ebp
	imull	1380+arr(%rip), %ebp
	imull	1384+arr(%rip), %ebp
	imull	1388+arr(%rip), %ebp
	imull	1392+arr(%rip), %ebp
	imull	2100+arr(%rip), %edi
	imull	2104+arr(%rip), %edi
	imull	2108+arr(%rip), %edi
	imull	2112+arr(%rip), %edi
	imull	2116+arr(%rip), %edi
	imull	2120+arr(%rip), %edi
	imull	2124+arr(%rip), %edi
	imull	2128+arr(%rip), %edi
	imull	2132+arr(%rip), %edi
	imull	2136+arr(%rip), %edi
	imull	2140+arr(%rip), %edi
	imull	2144+arr(%rip), %edi
	imull	2148+arr(%rip), %edi
	imull	2152+arr(%rip), %edi
	imull	2156+arr(%rip), %edi
	imull	2160+arr(%rip), %edi
	imull	2164+arr(%rip), %edi
	imull	2168+arr(%rip), %edi
	imull	2172+arr(%rip), %edi
	imull	2176+arr(%rip), %edi
	imull	2180+arr(%rip), %edi
	imull	2184+arr(%rip), %edi
	imull	2188+arr(%rip), %edi
	imull	2192+arr(%rip), %edi
	imull	2900+arr(%rip), %r11d
	imull	2904+arr(%rip), %r11d
	imull	2908+arr(%rip), %r11d
	imull	2912+arr(%rip), %r11d
	imull	2916+arr(%rip), %r11d
	imull	2920+arr(%rip), %r11d
	imull	2924+arr(%rip), %r11d
	imull	2928+arr(%rip), %r11d
	imull	2932+arr(%rip), %r11d
	imull	2936+arr(%rip), %r11d
	imull	2940+arr(%rip), %r11d
	imull	2944+arr(%rip), %r11d
	imull	2948+arr(%rip), %r11d
	imull	2952+arr(%rip), %r11d
	imull	2956+arr(%rip), %r11d
	imull	2960+arr(%rip), %r11d
	imull	2964+arr(%rip), %r11d
	imull	2968+arr(%rip), %r11d
	imull	2972+arr(%rip), %r11d
	imull	2976+arr(%rip), %r11d
	imull	2980+arr(%rip), %r11d
	imull	2984+arr(%rip), %r11d
	imull	2988+arr(%rip), %r11d
	imull	2992+arr(%rip), %r11d
	imull	3700+arr(%rip), %r10d
	imull	3704+arr(%rip), %r10d
	imull	3708+arr(%rip), %r10d
	imull	3712+arr(%rip), %r10d
	imull	3716+arr(%rip), %r10d
	imull	3720+arr(%rip), %r10d
	imull	3724+arr(%rip), %r10d
	imull	3728+arr(%rip), %r10d
	imull	3732+arr(%rip), %r10d
	imull	3736+arr(%rip), %r10d
	imull	3740+arr(%rip), %r10d
	imull	3744+arr(%rip), %r10d
	imull	3748+arr(%rip), %r10d
	imull	3752+arr(%rip), %r10d
	imull	3756+arr(%rip), %r10d
	imull	3760+arr(%rip), %r10d
	imull	3764+arr(%rip), %r10d
	imull	3768+arr(%rip), %r10d
	imull	3772+arr(%rip), %r10d
	imull	3776+arr(%rip), %r10d
	imull	3780+arr(%rip), %r10d
	imull	3784+arr(%rip), %r10d
	imull	3788+arr(%rip), %r10d
	imull	3792+arr(%rip), %r10d
	imull	4500+arr(%rip), %r9d
	imull	4504+arr(%rip), %r9d
	imull	4508+arr(%rip), %r9d
	imull	4512+arr(%rip), %r9d
	imull	4516+arr(%rip), %r9d
	imull	4520+arr(%rip), %r9d
	imull	4524+arr(%rip), %r9d
	imull	4528+arr(%rip), %r9d
	imull	4532+arr(%rip), %r9d
	imull	4536+arr(%rip), %r9d
	imull	4540+arr(%rip), %r9d
	imull	4544+arr(%rip), %r9d
	imull	4548+arr(%rip), %r9d
	imull	4552+arr(%rip), %r9d
	imull	4556+arr(%rip), %r9d
	imull	4560+arr(%rip), %r9d
	imull	4564+arr(%rip), %r9d
	imull	4568+arr(%rip), %r9d
	imull	4572+arr(%rip), %r9d
	imull	4576+arr(%rip), %r9d
	imull	4580+arr(%rip), %r9d
	imull	4584+arr(%rip), %r9d
	imull	4588+arr(%rip), %r9d
	imull	4592+arr(%rip), %r9d
	imull	5300+arr(%rip), %r8d
	imull	5304+arr(%rip), %r8d
	imull	5308+arr(%rip), %r8d
	imull	5312+arr(%rip), %r8d
	imull	5316+arr(%rip), %r8d
	imull	5320+arr(%rip), %r8d
	imull	5324+arr(%rip), %r8d
	imull	5328+arr(%rip), %r8d
	imull	5332+arr(%rip), %r8d
	imull	5336+arr(%rip), %r8d
	imull	5340+arr(%rip), %r8d
	imull	5344+arr(%rip), %r8d
	imull	5348+arr(%rip), %r8d
	imull	5352+arr(%rip), %r8d
	imull	5356+arr(%rip), %r8d
	imull	5360+arr(%rip), %r8d
	imull	5364+arr(%rip), %r8d
	imull	5368+arr(%rip), %r8d
	imull	5372+arr(%rip), %r8d
	imull	5376+arr(%rip), %r8d
	imull	5380+arr(%rip), %r8d
	imull	5384+arr(%rip), %r8d
	imull	5388+arr(%rip), %r8d
	imull	5392+arr(%rip), %r8d
	imull	6100+arr(%rip), %ecx
	imull	6104+arr(%rip), %ecx
	imull	6108+arr(%rip), %ecx
	imull	6112+arr(%rip), %ecx
	imull	6116+arr(%rip), %ecx
	imull	6120+arr(%rip), %ecx
	imull	6124+arr(%rip), %ecx
	imull	6128+arr(%rip), %ecx
	imull	6132+arr(%rip), %ecx
	imull	6136+arr(%rip), %ecx
	imull	6140+arr(%rip), %ecx
	imull	6144+arr(%rip), %ecx
	imull	6148+arr(%rip), %ecx
	imull	6152+arr(%rip), %ecx
	imull	6156+arr(%rip), %ecx
	imull	6160+arr(%rip), %ecx
	imull	6164+arr(%rip), %ecx
	imull	6168+arr(%rip), %ecx
	imull	6172+arr(%rip), %ecx
	imull	6176+arr(%rip), %ecx
	imull	6180+arr(%rip), %ecx
	imull	6184+arr(%rip), %ecx
	imull	6188+arr(%rip), %ecx
	imull	6192+arr(%rip), %ecx
	imull	6900+arr(%rip), %edx
	imull	6904+arr(%rip), %edx
	imull	6908+arr(%rip), %edx
	imull	6912+arr(%rip), %edx
	imull	6916+arr(%rip), %edx
	imull	6920+arr(%rip), %edx
	imull	6924+arr(%rip), %edx
	imull	6928+arr(%rip), %edx
	imull	6932+arr(%rip), %edx
	imull	6936+arr(%rip), %edx
	imull	6940+arr(%rip), %edx
	imull	6944+arr(%rip), %edx
	imull	6948+arr(%rip), %edx
	imull	6952+arr(%rip), %edx
	imull	6956+arr(%rip), %edx
	imull	6960+arr(%rip), %edx
	imull	6964+arr(%rip), %edx
	imull	6968+arr(%rip), %edx
	imull	6972+arr(%rip), %edx
	imull	6976+arr(%rip), %edx
	imull	6980+arr(%rip), %edx
	imull	6984+arr(%rip), %edx
	imull	6988+arr(%rip), %edx
	imull	6992+arr(%rip), %edx
	imull	7700+arr(%rip), %eax
	imull	7704+arr(%rip), %eax
	imull	7708+arr(%rip), %eax
	imull	7712+arr(%rip), %eax
	imull	7716+arr(%rip), %eax
	imull	7720+arr(%rip), %eax
	imull	7724+arr(%rip), %eax
	imull	7728+arr(%rip), %eax
	imull	7732+arr(%rip), %eax
	imull	7736+arr(%rip), %eax
	imull	7740+arr(%rip), %eax
	imull	7744+arr(%rip), %eax
	imull	7748+arr(%rip), %eax
	imull	7752+arr(%rip), %eax
	imull	7756+arr(%rip), %eax
	imull	7760+arr(%rip), %eax
	imull	7764+arr(%rip), %eax
	imull	7768+arr(%rip), %eax
	imull	7772+arr(%rip), %eax
	imull	7776+arr(%rip), %eax
	imull	7780+arr(%rip), %eax
	imull	7784+arr(%rip), %eax
	imull	7788+arr(%rip), %eax
	imull	7792+arr(%rip), %eax
	imull	500+arr(%rip), %r12d
	imull	504+arr(%rip), %r12d
	imull	508+arr(%rip), %r12d
	imull	512+arr(%rip), %r12d
	imull	516+arr(%rip), %r12d
	imull	520+arr(%rip), %r12d
	imull	524+arr(%rip), %r12d
	imull	528+arr(%rip), %r12d
	imull	532+arr(%rip), %r12d
	imull	536+arr(%rip), %r12d
	imull	540+arr(%rip), %r12d
	imull	544+arr(%rip), %r12d
	imull	548+arr(%rip), %r12d
	imull	552+arr(%rip), %r12d
	imull	556+arr(%rip), %r12d
	imull	560+arr(%rip), %r12d
	imull	564+arr(%rip), %r12d
	imull	568+arr(%rip), %r12d
	imull	572+arr(%rip), %r12d
	imull	576+arr(%rip), %r12d
	imull	580+arr(%rip), %r12d
	imull	584+arr(%rip), %r12d
	imull	588+arr(%rip), %r12d
	imull	592+arr(%rip), %r12d
	imull	596+arr(%rip), %r12d
	imull	1396+arr(%rip), %ebp
	imull	2196+arr(%rip), %edi
	imull	2996+arr(%rip), %r11d
	imull	3796+arr(%rip), %r10d
	imull	4596+arr(%rip), %r9d
	imull	5396+arr(%rip), %r8d
	imull	6196+arr(%rip), %ecx
	imull	6996+arr(%rip), %edx
	imull	7796+arr(%rip), %eax
	imull	1400+arr(%rip), %ebp
	imull	1404+arr(%rip), %ebp
	imull	1408+arr(%rip), %ebp
	imull	1412+arr(%rip), %ebp
	imull	1416+arr(%rip), %ebp
	imull	1420+arr(%rip), %ebp
	imull	1424+arr(%rip), %ebp
	imull	1428+arr(%rip), %ebp
	imull	1432+arr(%rip), %ebp
	imull	1436+arr(%rip), %ebp
	imull	1440+arr(%rip), %ebp
	imull	1444+arr(%rip), %ebp
	imull	1448+arr(%rip), %ebp
	imull	1452+arr(%rip), %ebp
	imull	1456+arr(%rip), %ebp
	imull	1460+arr(%rip), %ebp
	imull	1464+arr(%rip), %ebp
	imull	1468+arr(%rip), %ebp
	imull	1472+arr(%rip), %ebp
	imull	1476+arr(%rip), %ebp
	imull	1480+arr(%rip), %ebp
	imull	1484+arr(%rip), %ebp
	imull	1488+arr(%rip), %ebp
	imull	1492+arr(%rip), %ebp
	imull	2200+arr(%rip), %edi
	imull	2204+arr(%rip), %edi
	imull	2208+arr(%rip), %edi
	imull	2212+arr(%rip), %edi
	imull	2216+arr(%rip), %edi
	imull	2220+arr(%rip), %edi
	imull	2224+arr(%rip), %edi
	imull	2228+arr(%rip), %edi
	imull	2232+arr(%rip), %edi
	imull	2236+arr(%rip), %edi
	imull	2240+arr(%rip), %edi
	imull	2244+arr(%rip), %edi
	imull	2248+arr(%rip), %edi
	imull	2252+arr(%rip), %edi
	imull	2256+arr(%rip), %edi
	imull	2260+arr(%rip), %edi
	imull	2264+arr(%rip), %edi
	imull	2268+arr(%rip), %edi
	imull	2272+arr(%rip), %edi
	imull	2276+arr(%rip), %edi
	imull	2280+arr(%rip), %edi
	imull	2284+arr(%rip), %edi
	imull	2288+arr(%rip), %edi
	imull	2292+arr(%rip), %edi
	imull	3000+arr(%rip), %r11d
	imull	3004+arr(%rip), %r11d
	imull	3008+arr(%rip), %r11d
	imull	3012+arr(%rip), %r11d
	imull	3016+arr(%rip), %r11d
	imull	3020+arr(%rip), %r11d
	imull	3024+arr(%rip), %r11d
	imull	3028+arr(%rip), %r11d
	imull	3032+arr(%rip), %r11d
	imull	3036+arr(%rip), %r11d
	imull	3040+arr(%rip), %r11d
	imull	3044+arr(%rip), %r11d
	imull	3048+arr(%rip), %r11d
	imull	3052+arr(%rip), %r11d
	imull	3056+arr(%rip), %r11d
	imull	3060+arr(%rip), %r11d
	imull	3064+arr(%rip), %r11d
	imull	3068+arr(%rip), %r11d
	imull	3072+arr(%rip), %r11d
	imull	3076+arr(%rip), %r11d
	imull	3080+arr(%rip), %r11d
	imull	3084+arr(%rip), %r11d
	imull	3088+arr(%rip), %r11d
	imull	3092+arr(%rip), %r11d
	imull	3800+arr(%rip), %r10d
	imull	3804+arr(%rip), %r10d
	imull	3808+arr(%rip), %r10d
	imull	3812+arr(%rip), %r10d
	imull	3816+arr(%rip), %r10d
	imull	3820+arr(%rip), %r10d
	imull	3824+arr(%rip), %r10d
	imull	3828+arr(%rip), %r10d
	imull	3832+arr(%rip), %r10d
	imull	3836+arr(%rip), %r10d
	imull	3840+arr(%rip), %r10d
	imull	3844+arr(%rip), %r10d
	imull	3848+arr(%rip), %r10d
	imull	3852+arr(%rip), %r10d
	imull	3856+arr(%rip), %r10d
	imull	3860+arr(%rip), %r10d
	imull	3864+arr(%rip), %r10d
	imull	3868+arr(%rip), %r10d
	imull	3872+arr(%rip), %r10d
	imull	3876+arr(%rip), %r10d
	imull	3880+arr(%rip), %r10d
	imull	3884+arr(%rip), %r10d
	imull	3888+arr(%rip), %r10d
	imull	3892+arr(%rip), %r10d
	imull	4600+arr(%rip), %r9d
	imull	4604+arr(%rip), %r9d
	imull	4608+arr(%rip), %r9d
	imull	4612+arr(%rip), %r9d
	imull	4616+arr(%rip), %r9d
	imull	4620+arr(%rip), %r9d
	imull	4624+arr(%rip), %r9d
	imull	4628+arr(%rip), %r9d
	imull	4632+arr(%rip), %r9d
	imull	4636+arr(%rip), %r9d
	imull	4640+arr(%rip), %r9d
	imull	4644+arr(%rip), %r9d
	imull	4648+arr(%rip), %r9d
	imull	4652+arr(%rip), %r9d
	imull	4656+arr(%rip), %r9d
	imull	4660+arr(%rip), %r9d
	imull	4664+arr(%rip), %r9d
	imull	4668+arr(%rip), %r9d
	imull	4672+arr(%rip), %r9d
	imull	4676+arr(%rip), %r9d
	imull	4680+arr(%rip), %r9d
	imull	4684+arr(%rip), %r9d
	imull	4688+arr(%rip), %r9d
	imull	4692+arr(%rip), %r9d
	imull	5400+arr(%rip), %r8d
	imull	5404+arr(%rip), %r8d
	imull	5408+arr(%rip), %r8d
	imull	5412+arr(%rip), %r8d
	imull	5416+arr(%rip), %r8d
	imull	5420+arr(%rip), %r8d
	imull	5424+arr(%rip), %r8d
	imull	5428+arr(%rip), %r8d
	imull	5432+arr(%rip), %r8d
	imull	5436+arr(%rip), %r8d
	imull	5440+arr(%rip), %r8d
	imull	5444+arr(%rip), %r8d
	imull	5448+arr(%rip), %r8d
	imull	5452+arr(%rip), %r8d
	imull	5456+arr(%rip), %r8d
	imull	5460+arr(%rip), %r8d
	imull	5464+arr(%rip), %r8d
	imull	5468+arr(%rip), %r8d
	imull	5472+arr(%rip), %r8d
	imull	5476+arr(%rip), %r8d
	imull	5480+arr(%rip), %r8d
	imull	5484+arr(%rip), %r8d
	imull	5488+arr(%rip), %r8d
	imull	5492+arr(%rip), %r8d
	imull	6200+arr(%rip), %ecx
	imull	6204+arr(%rip), %ecx
	imull	6208+arr(%rip), %ecx
	imull	6212+arr(%rip), %ecx
	imull	6216+arr(%rip), %ecx
	imull	6220+arr(%rip), %ecx
	imull	6224+arr(%rip), %ecx
	imull	6228+arr(%rip), %ecx
	imull	6232+arr(%rip), %ecx
	imull	6236+arr(%rip), %ecx
	imull	6240+arr(%rip), %ecx
	imull	6244+arr(%rip), %ecx
	imull	6248+arr(%rip), %ecx
	imull	6252+arr(%rip), %ecx
	imull	6256+arr(%rip), %ecx
	imull	6260+arr(%rip), %ecx
	imull	6264+arr(%rip), %ecx
	imull	6268+arr(%rip), %ecx
	imull	6272+arr(%rip), %ecx
	imull	6276+arr(%rip), %ecx
	imull	6280+arr(%rip), %ecx
	imull	6284+arr(%rip), %ecx
	imull	6288+arr(%rip), %ecx
	imull	6292+arr(%rip), %ecx
	imull	7000+arr(%rip), %edx
	imull	7004+arr(%rip), %edx
	imull	7008+arr(%rip), %edx
	imull	7012+arr(%rip), %edx
	imull	7016+arr(%rip), %edx
	imull	7020+arr(%rip), %edx
	imull	7024+arr(%rip), %edx
	imull	7028+arr(%rip), %edx
	imull	7032+arr(%rip), %edx
	imull	7036+arr(%rip), %edx
	imull	7040+arr(%rip), %edx
	imull	7044+arr(%rip), %edx
	imull	7048+arr(%rip), %edx
	imull	7052+arr(%rip), %edx
	imull	7056+arr(%rip), %edx
	imull	7060+arr(%rip), %edx
	imull	7064+arr(%rip), %edx
	imull	7068+arr(%rip), %edx
	imull	7072+arr(%rip), %edx
	imull	7076+arr(%rip), %edx
	imull	7080+arr(%rip), %edx
	imull	7084+arr(%rip), %edx
	imull	7088+arr(%rip), %edx
	imull	7092+arr(%rip), %edx
	imull	7800+arr(%rip), %eax
	imull	7804+arr(%rip), %eax
	imull	7808+arr(%rip), %eax
	imull	7812+arr(%rip), %eax
	imull	7816+arr(%rip), %eax
	imull	7820+arr(%rip), %eax
	imull	7824+arr(%rip), %eax
	imull	7828+arr(%rip), %eax
	imull	7832+arr(%rip), %eax
	imull	7836+arr(%rip), %eax
	imull	7840+arr(%rip), %eax
	imull	7844+arr(%rip), %eax
	imull	7848+arr(%rip), %eax
	imull	7852+arr(%rip), %eax
	imull	7856+arr(%rip), %eax
	imull	7860+arr(%rip), %eax
	imull	7864+arr(%rip), %eax
	imull	7868+arr(%rip), %eax
	imull	7872+arr(%rip), %eax
	imull	7876+arr(%rip), %eax
	imull	7880+arr(%rip), %eax
	imull	7884+arr(%rip), %eax
	imull	7888+arr(%rip), %eax
	imull	7892+arr(%rip), %eax
	imull	600+arr(%rip), %r12d
	imull	604+arr(%rip), %r12d
	imull	608+arr(%rip), %r12d
	imull	612+arr(%rip), %r12d
	imull	616+arr(%rip), %r12d
	imull	620+arr(%rip), %r12d
	imull	624+arr(%rip), %r12d
	imull	628+arr(%rip), %r12d
	imull	632+arr(%rip), %r12d
	imull	636+arr(%rip), %r12d
	imull	640+arr(%rip), %r12d
	imull	644+arr(%rip), %r12d
	imull	648+arr(%rip), %r12d
	imull	652+arr(%rip), %r12d
	imull	656+arr(%rip), %r12d
	imull	660+arr(%rip), %r12d
	imull	664+arr(%rip), %r12d
	imull	668+arr(%rip), %r12d
	imull	672+arr(%rip), %r12d
	imull	676+arr(%rip), %r12d
	imull	680+arr(%rip), %r12d
	imull	684+arr(%rip), %r12d
	imull	688+arr(%rip), %r12d
	imull	692+arr(%rip), %r12d
	imull	696+arr(%rip), %r12d
	imull	1496+arr(%rip), %ebp
	imull	2296+arr(%rip), %edi
	imull	3096+arr(%rip), %r11d
	imull	3896+arr(%rip), %r10d
	imull	4696+arr(%rip), %r9d
	imull	5496+arr(%rip), %r8d
	imull	6296+arr(%rip), %ecx
	imull	7096+arr(%rip), %edx
	imull	7896+arr(%rip), %eax
	imull	1500+arr(%rip), %ebp
	imull	1504+arr(%rip), %ebp
	imull	1508+arr(%rip), %ebp
	imull	1512+arr(%rip), %ebp
	imull	1516+arr(%rip), %ebp
	imull	1520+arr(%rip), %ebp
	imull	1524+arr(%rip), %ebp
	imull	1528+arr(%rip), %ebp
	imull	1532+arr(%rip), %ebp
	imull	1536+arr(%rip), %ebp
	imull	1540+arr(%rip), %ebp
	imull	1544+arr(%rip), %ebp
	imull	1548+arr(%rip), %ebp
	imull	1552+arr(%rip), %ebp
	imull	1556+arr(%rip), %ebp
	imull	1560+arr(%rip), %ebp
	imull	1564+arr(%rip), %ebp
	imull	1568+arr(%rip), %ebp
	imull	1572+arr(%rip), %ebp
	imull	1576+arr(%rip), %ebp
	imull	1580+arr(%rip), %ebp
	imull	1584+arr(%rip), %ebp
	imull	1588+arr(%rip), %ebp
	imull	1592+arr(%rip), %ebp
	imull	2300+arr(%rip), %edi
	imull	2304+arr(%rip), %edi
	imull	2308+arr(%rip), %edi
	imull	2312+arr(%rip), %edi
	imull	2316+arr(%rip), %edi
	imull	2320+arr(%rip), %edi
	imull	2324+arr(%rip), %edi
	imull	2328+arr(%rip), %edi
	imull	2332+arr(%rip), %edi
	imull	2336+arr(%rip), %edi
	imull	2340+arr(%rip), %edi
	imull	2344+arr(%rip), %edi
	imull	2348+arr(%rip), %edi
	imull	2352+arr(%rip), %edi
	imull	2356+arr(%rip), %edi
	imull	2360+arr(%rip), %edi
	imull	2364+arr(%rip), %edi
	imull	2368+arr(%rip), %edi
	imull	2372+arr(%rip), %edi
	imull	2376+arr(%rip), %edi
	imull	2380+arr(%rip), %edi
	imull	2384+arr(%rip), %edi
	imull	2388+arr(%rip), %edi
	imull	2392+arr(%rip), %edi
	imull	3100+arr(%rip), %r11d
	imull	3104+arr(%rip), %r11d
	imull	3108+arr(%rip), %r11d
	imull	3112+arr(%rip), %r11d
	imull	3116+arr(%rip), %r11d
	imull	3120+arr(%rip), %r11d
	imull	3124+arr(%rip), %r11d
	imull	3128+arr(%rip), %r11d
	imull	3132+arr(%rip), %r11d
	imull	3136+arr(%rip), %r11d
	imull	3140+arr(%rip), %r11d
	imull	3144+arr(%rip), %r11d
	imull	3148+arr(%rip), %r11d
	imull	3152+arr(%rip), %r11d
	imull	3156+arr(%rip), %r11d
	imull	3160+arr(%rip), %r11d
	imull	3164+arr(%rip), %r11d
	imull	3168+arr(%rip), %r11d
	imull	3172+arr(%rip), %r11d
	imull	3176+arr(%rip), %r11d
	imull	3180+arr(%rip), %r11d
	imull	3184+arr(%rip), %r11d
	imull	3188+arr(%rip), %r11d
	imull	3192+arr(%rip), %r11d
	imull	3900+arr(%rip), %r10d
	imull	3904+arr(%rip), %r10d
	imull	3908+arr(%rip), %r10d
	imull	3912+arr(%rip), %r10d
	imull	3916+arr(%rip), %r10d
	imull	3920+arr(%rip), %r10d
	imull	3924+arr(%rip), %r10d
	imull	3928+arr(%rip), %r10d
	imull	3932+arr(%rip), %r10d
	imull	3936+arr(%rip), %r10d
	imull	3940+arr(%rip), %r10d
	imull	3944+arr(%rip), %r10d
	imull	3948+arr(%rip), %r10d
	imull	3952+arr(%rip), %r10d
	imull	3956+arr(%rip), %r10d
	imull	3960+arr(%rip), %r10d
	imull	3964+arr(%rip), %r10d
	imull	3968+arr(%rip), %r10d
	imull	3972+arr(%rip), %r10d
	imull	3976+arr(%rip), %r10d
	imull	3980+arr(%rip), %r10d
	imull	3984+arr(%rip), %r10d
	imull	3988+arr(%rip), %r10d
	imull	3992+arr(%rip), %r10d
	imull	4700+arr(%rip), %r9d
	imull	4704+arr(%rip), %r9d
	imull	4708+arr(%rip), %r9d
	imull	4712+arr(%rip), %r9d
	imull	4716+arr(%rip), %r9d
	imull	4720+arr(%rip), %r9d
	imull	4724+arr(%rip), %r9d
	imull	4728+arr(%rip), %r9d
	imull	4732+arr(%rip), %r9d
	imull	4736+arr(%rip), %r9d
	imull	4740+arr(%rip), %r9d
	imull	4744+arr(%rip), %r9d
	imull	4748+arr(%rip), %r9d
	imull	4752+arr(%rip), %r9d
	imull	4756+arr(%rip), %r9d
	imull	4760+arr(%rip), %r9d
	imull	4764+arr(%rip), %r9d
	imull	4768+arr(%rip), %r9d
	imull	4772+arr(%rip), %r9d
	imull	4776+arr(%rip), %r9d
	imull	4780+arr(%rip), %r9d
	imull	4784+arr(%rip), %r9d
	imull	4788+arr(%rip), %r9d
	imull	4792+arr(%rip), %r9d
	imull	5500+arr(%rip), %r8d
	imull	5504+arr(%rip), %r8d
	imull	5508+arr(%rip), %r8d
	imull	5512+arr(%rip), %r8d
	imull	5516+arr(%rip), %r8d
	imull	5520+arr(%rip), %r8d
	imull	5524+arr(%rip), %r8d
	imull	5528+arr(%rip), %r8d
	imull	5532+arr(%rip), %r8d
	imull	5536+arr(%rip), %r8d
	imull	5540+arr(%rip), %r8d
	imull	5544+arr(%rip), %r8d
	imull	5548+arr(%rip), %r8d
	imull	5552+arr(%rip), %r8d
	imull	5556+arr(%rip), %r8d
	imull	5560+arr(%rip), %r8d
	imull	5564+arr(%rip), %r8d
	imull	5568+arr(%rip), %r8d
	imull	5572+arr(%rip), %r8d
	imull	5576+arr(%rip), %r8d
	imull	5580+arr(%rip), %r8d
	imull	5584+arr(%rip), %r8d
	imull	5588+arr(%rip), %r8d
	imull	5592+arr(%rip), %r8d
	imull	6300+arr(%rip), %ecx
	imull	6304+arr(%rip), %ecx
	imull	6308+arr(%rip), %ecx
	imull	6312+arr(%rip), %ecx
	imull	6316+arr(%rip), %ecx
	imull	6320+arr(%rip), %ecx
	imull	6324+arr(%rip), %ecx
	imull	6328+arr(%rip), %ecx
	imull	6332+arr(%rip), %ecx
	imull	6336+arr(%rip), %ecx
	imull	6340+arr(%rip), %ecx
	imull	6344+arr(%rip), %ecx
	imull	6348+arr(%rip), %ecx
	imull	6352+arr(%rip), %ecx
	imull	6356+arr(%rip), %ecx
	imull	6360+arr(%rip), %ecx
	imull	6364+arr(%rip), %ecx
	imull	6368+arr(%rip), %ecx
	imull	6372+arr(%rip), %ecx
	imull	6376+arr(%rip), %ecx
	imull	6380+arr(%rip), %ecx
	imull	6384+arr(%rip), %ecx
	imull	6388+arr(%rip), %ecx
	imull	6392+arr(%rip), %ecx
	imull	7100+arr(%rip), %edx
	imull	7104+arr(%rip), %edx
	imull	7108+arr(%rip), %edx
	imull	7112+arr(%rip), %edx
	imull	7116+arr(%rip), %edx
	imull	7120+arr(%rip), %edx
	imull	7124+arr(%rip), %edx
	imull	7128+arr(%rip), %edx
	imull	7132+arr(%rip), %edx
	imull	7136+arr(%rip), %edx
	imull	7140+arr(%rip), %edx
	imull	7144+arr(%rip), %edx
	imull	7148+arr(%rip), %edx
	imull	7152+arr(%rip), %edx
	imull	7156+arr(%rip), %edx
	imull	7160+arr(%rip), %edx
	imull	7164+arr(%rip), %edx
	imull	7168+arr(%rip), %edx
	imull	7172+arr(%rip), %edx
	imull	7176+arr(%rip), %edx
	imull	7180+arr(%rip), %edx
	imull	7184+arr(%rip), %edx
	imull	7188+arr(%rip), %edx
	imull	7192+arr(%rip), %edx
	imull	7900+arr(%rip), %eax
	imull	7904+arr(%rip), %eax
	imull	7908+arr(%rip), %eax
	imull	7912+arr(%rip), %eax
	imull	7916+arr(%rip), %eax
	imull	7920+arr(%rip), %eax
	imull	7924+arr(%rip), %eax
	imull	7928+arr(%rip), %eax
	imull	7932+arr(%rip), %eax
	imull	7936+arr(%rip), %eax
	imull	7940+arr(%rip), %eax
	imull	7944+arr(%rip), %eax
	imull	7948+arr(%rip), %eax
	imull	7952+arr(%rip), %eax
	imull	7956+arr(%rip), %eax
	imull	7960+arr(%rip), %eax
	imull	7964+arr(%rip), %eax
	imull	7968+arr(%rip), %eax
	imull	7972+arr(%rip), %eax
	imull	7976+arr(%rip), %eax
	imull	7980+arr(%rip), %eax
	imull	7984+arr(%rip), %eax
	imull	7988+arr(%rip), %eax
	imull	7992+arr(%rip), %eax
	imull	700+arr(%rip), %r12d
	imull	704+arr(%rip), %r12d
	imull	708+arr(%rip), %r12d
	imull	712+arr(%rip), %r12d
	imull	716+arr(%rip), %r12d
	imull	720+arr(%rip), %r12d
	imull	724+arr(%rip), %r12d
	imull	728+arr(%rip), %r12d
	imull	732+arr(%rip), %r12d
	imull	736+arr(%rip), %r12d
	imull	740+arr(%rip), %r12d
	imull	744+arr(%rip), %r12d
	imull	748+arr(%rip), %r12d
	imull	752+arr(%rip), %r12d
	imull	756+arr(%rip), %r12d
	imull	760+arr(%rip), %r12d
	imull	764+arr(%rip), %r12d
	imull	768+arr(%rip), %r12d
	imull	772+arr(%rip), %r12d
	imull	776+arr(%rip), %r12d
	imull	780+arr(%rip), %r12d
	imull	784+arr(%rip), %r12d
	imull	788+arr(%rip), %r12d
	imull	792+arr(%rip), %r12d
	imull	796+arr(%rip), %r12d
	imull	1596+arr(%rip), %ebp
	imull	2396+arr(%rip), %edi
	imull	3196+arr(%rip), %r11d
	imull	3996+arr(%rip), %r10d
	imull	4796+arr(%rip), %r9d
	imull	5596+arr(%rip), %r8d
	imull	6396+arr(%rip), %ecx
	imull	7196+arr(%rip), %edx
	imull	7996+arr(%rip), %eax
	imull	800+arr(%rip), %ebp
	imull	804+arr(%rip), %ebp
	imull	808+arr(%rip), %ebp
	imull	812+arr(%rip), %ebp
	imull	816+arr(%rip), %ebp
	imull	820+arr(%rip), %ebp
	imull	824+arr(%rip), %ebp
	imull	828+arr(%rip), %ebp
	imull	832+arr(%rip), %ebp
	imull	836+arr(%rip), %ebp
	imull	840+arr(%rip), %ebp
	imull	844+arr(%rip), %ebp
	imull	848+arr(%rip), %ebp
	imull	852+arr(%rip), %ebp
	imull	856+arr(%rip), %ebp
	imull	860+arr(%rip), %ebp
	imull	864+arr(%rip), %ebp
	imull	868+arr(%rip), %ebp
	imull	872+arr(%rip), %ebp
	imull	876+arr(%rip), %ebp
	imull	880+arr(%rip), %ebp
	imull	884+arr(%rip), %ebp
	imull	888+arr(%rip), %ebp
	imull	892+arr(%rip), %ebp
	imull	1600+arr(%rip), %edi
	imull	1604+arr(%rip), %edi
	imull	1608+arr(%rip), %edi
	imull	1612+arr(%rip), %edi
	imull	1616+arr(%rip), %edi
	imull	1620+arr(%rip), %edi
	imull	1624+arr(%rip), %edi
	imull	1628+arr(%rip), %edi
	imull	1632+arr(%rip), %edi
	imull	1636+arr(%rip), %edi
	imull	1640+arr(%rip), %edi
	imull	1644+arr(%rip), %edi
	imull	1648+arr(%rip), %edi
	imull	1652+arr(%rip), %edi
	imull	1656+arr(%rip), %edi
	imull	1660+arr(%rip), %edi
	imull	1664+arr(%rip), %edi
	imull	1668+arr(%rip), %edi
	imull	1672+arr(%rip), %edi
	imull	1676+arr(%rip), %edi
	imull	1680+arr(%rip), %edi
	imull	1684+arr(%rip), %edi
	imull	1688+arr(%rip), %edi
	imull	1692+arr(%rip), %edi
	imull	2400+arr(%rip), %r11d
	imull	2404+arr(%rip), %r11d
	imull	2408+arr(%rip), %r11d
	imull	2412+arr(%rip), %r11d
	imull	2416+arr(%rip), %r11d
	imull	2420+arr(%rip), %r11d
	imull	2424+arr(%rip), %r11d
	imull	2428+arr(%rip), %r11d
	imull	2432+arr(%rip), %r11d
	imull	2436+arr(%rip), %r11d
	imull	2440+arr(%rip), %r11d
	imull	2444+arr(%rip), %r11d
	imull	2448+arr(%rip), %r11d
	imull	2452+arr(%rip), %r11d
	imull	2456+arr(%rip), %r11d
	imull	2460+arr(%rip), %r11d
	imull	2464+arr(%rip), %r11d
	imull	2468+arr(%rip), %r11d
	imull	2472+arr(%rip), %r11d
	imull	2476+arr(%rip), %r11d
	imull	2480+arr(%rip), %r11d
	imull	2484+arr(%rip), %r11d
	imull	2488+arr(%rip), %r11d
	imull	2492+arr(%rip), %r11d
	imull	3200+arr(%rip), %r10d
	imull	3204+arr(%rip), %r10d
	imull	3208+arr(%rip), %r10d
	imull	3212+arr(%rip), %r10d
	imull	3216+arr(%rip), %r10d
	imull	3220+arr(%rip), %r10d
	imull	3224+arr(%rip), %r10d
	imull	3228+arr(%rip), %r10d
	imull	3232+arr(%rip), %r10d
	imull	3236+arr(%rip), %r10d
	imull	3240+arr(%rip), %r10d
	imull	3244+arr(%rip), %r10d
	imull	3248+arr(%rip), %r10d
	imull	3252+arr(%rip), %r10d
	imull	3256+arr(%rip), %r10d
	imull	3260+arr(%rip), %r10d
	imull	3264+arr(%rip), %r10d
	imull	3268+arr(%rip), %r10d
	imull	3272+arr(%rip), %r10d
	imull	3276+arr(%rip), %r10d
	imull	3280+arr(%rip), %r10d
	imull	3284+arr(%rip), %r10d
	imull	3288+arr(%rip), %r10d
	imull	3292+arr(%rip), %r10d
	imull	4000+arr(%rip), %r9d
	imull	4004+arr(%rip), %r9d
	imull	4008+arr(%rip), %r9d
	imull	4012+arr(%rip), %r9d
	imull	4016+arr(%rip), %r9d
	imull	4020+arr(%rip), %r9d
	imull	4024+arr(%rip), %r9d
	imull	4028+arr(%rip), %r9d
	imull	4032+arr(%rip), %r9d
	imull	4036+arr(%rip), %r9d
	imull	4040+arr(%rip), %r9d
	imull	4044+arr(%rip), %r9d
	imull	4048+arr(%rip), %r9d
	imull	4052+arr(%rip), %r9d
	imull	4056+arr(%rip), %r9d
	imull	4060+arr(%rip), %r9d
	imull	4064+arr(%rip), %r9d
	imull	4068+arr(%rip), %r9d
	imull	4072+arr(%rip), %r9d
	imull	4076+arr(%rip), %r9d
	imull	4080+arr(%rip), %r9d
	imull	4084+arr(%rip), %r9d
	imull	4088+arr(%rip), %r9d
	imull	4092+arr(%rip), %r9d
	imull	4800+arr(%rip), %r8d
	imull	4804+arr(%rip), %r8d
	imull	4808+arr(%rip), %r8d
	imull	4812+arr(%rip), %r8d
	imull	4816+arr(%rip), %r8d
	imull	4820+arr(%rip), %r8d
	imull	4824+arr(%rip), %r8d
	imull	4828+arr(%rip), %r8d
	imull	4832+arr(%rip), %r8d
	imull	4836+arr(%rip), %r8d
	imull	4840+arr(%rip), %r8d
	imull	4844+arr(%rip), %r8d
	imull	4848+arr(%rip), %r8d
	imull	4852+arr(%rip), %r8d
	imull	4856+arr(%rip), %r8d
	imull	4860+arr(%rip), %r8d
	imull	4864+arr(%rip), %r8d
	imull	4868+arr(%rip), %r8d
	imull	4872+arr(%rip), %r8d
	imull	4876+arr(%rip), %r8d
	imull	4880+arr(%rip), %r8d
	imull	4884+arr(%rip), %r8d
	imull	4888+arr(%rip), %r8d
	imull	4892+arr(%rip), %r8d
	imull	5600+arr(%rip), %ecx
	imull	5604+arr(%rip), %ecx
	imull	5608+arr(%rip), %ecx
	imull	5612+arr(%rip), %ecx
	imull	5616+arr(%rip), %ecx
	imull	5620+arr(%rip), %ecx
	imull	5624+arr(%rip), %ecx
	imull	5628+arr(%rip), %ecx
	imull	5632+arr(%rip), %ecx
	imull	5636+arr(%rip), %ecx
	imull	5640+arr(%rip), %ecx
	imull	5644+arr(%rip), %ecx
	imull	5648+arr(%rip), %ecx
	imull	5652+arr(%rip), %ecx
	imull	5656+arr(%rip), %ecx
	imull	5660+arr(%rip), %ecx
	imull	5664+arr(%rip), %ecx
	imull	5668+arr(%rip), %ecx
	imull	5672+arr(%rip), %ecx
	imull	5676+arr(%rip), %ecx
	imull	5680+arr(%rip), %ecx
	imull	5684+arr(%rip), %ecx
	imull	5688+arr(%rip), %ecx
	imull	5692+arr(%rip), %ecx
	imull	6400+arr(%rip), %edx
	imull	6404+arr(%rip), %edx
	imull	6408+arr(%rip), %edx
	imull	6412+arr(%rip), %edx
	imull	6416+arr(%rip), %edx
	imull	6420+arr(%rip), %edx
	imull	6424+arr(%rip), %edx
	imull	6428+arr(%rip), %edx
	imull	6432+arr(%rip), %edx
	imull	6436+arr(%rip), %edx
	imull	6440+arr(%rip), %edx
	imull	6444+arr(%rip), %edx
	imull	6448+arr(%rip), %edx
	imull	6452+arr(%rip), %edx
	imull	6456+arr(%rip), %edx
	imull	6460+arr(%rip), %edx
	imull	6464+arr(%rip), %edx
	imull	6468+arr(%rip), %edx
	imull	6472+arr(%rip), %edx
	imull	6476+arr(%rip), %edx
	imull	6480+arr(%rip), %edx
	imull	6484+arr(%rip), %edx
	imull	6488+arr(%rip), %edx
	imull	6492+arr(%rip), %edx
	imull	7200+arr(%rip), %eax
	imull	7204+arr(%rip), %eax
	imull	7208+arr(%rip), %eax
	imull	7212+arr(%rip), %eax
	imull	7216+arr(%rip), %eax
	imull	7220+arr(%rip), %eax
	imull	7224+arr(%rip), %eax
	imull	7228+arr(%rip), %eax
	imull	7232+arr(%rip), %eax
	imull	7236+arr(%rip), %eax
	imull	7240+arr(%rip), %eax
	imull	7244+arr(%rip), %eax
	imull	7248+arr(%rip), %eax
	imull	7252+arr(%rip), %eax
	imull	7256+arr(%rip), %eax
	imull	7260+arr(%rip), %eax
	imull	7264+arr(%rip), %eax
	imull	7268+arr(%rip), %eax
	imull	7272+arr(%rip), %eax
	imull	7276+arr(%rip), %eax
	imull	7280+arr(%rip), %eax
	imull	7284+arr(%rip), %eax
	imull	7288+arr(%rip), %eax
	imull	7292+arr(%rip), %eax
	imull	arr(%rip), %r12d
	imull	4+arr(%rip), %r12d
	imull	8+arr(%rip), %r12d
	imull	12+arr(%rip), %r12d
	imull	16+arr(%rip), %r12d
	imull	20+arr(%rip), %r12d
	imull	24+arr(%rip), %r12d
	imull	28+arr(%rip), %r12d
	imull	32+arr(%rip), %r12d
	imull	36+arr(%rip), %r12d
	imull	40+arr(%rip), %r12d
	imull	44+arr(%rip), %r12d
	imull	48+arr(%rip), %r12d
	imull	52+arr(%rip), %r12d
	imull	56+arr(%rip), %r12d
	imull	60+arr(%rip), %r12d
	imull	64+arr(%rip), %r12d
	imull	68+arr(%rip), %r12d
	imull	72+arr(%rip), %r12d
	imull	76+arr(%rip), %r12d
	imull	80+arr(%rip), %r12d
	imull	84+arr(%rip), %r12d
	imull	88+arr(%rip), %r12d
	imull	92+arr(%rip), %r12d
	imull	96+arr(%rip), %r12d
	imull	896+arr(%rip), %ebp
	imull	1696+arr(%rip), %edi
	imull	2496+arr(%rip), %r11d
	imull	3296+arr(%rip), %r10d
	imull	4096+arr(%rip), %r9d
	imull	4896+arr(%rip), %r8d
	imull	5696+arr(%rip), %ecx
	imull	6496+arr(%rip), %edx
	imull	7296+arr(%rip), %eax
	imull	900+arr(%rip), %ebp
	imull	904+arr(%rip), %ebp
	imull	908+arr(%rip), %ebp
	imull	912+arr(%rip), %ebp
	imull	916+arr(%rip), %ebp
	imull	920+arr(%rip), %ebp
	imull	924+arr(%rip), %ebp
	imull	928+arr(%rip), %ebp
	imull	932+arr(%rip), %ebp
	imull	936+arr(%rip), %ebp
	imull	940+arr(%rip), %ebp
	imull	944+arr(%rip), %ebp
	imull	948+arr(%rip), %ebp
	imull	952+arr(%rip), %ebp
	imull	956+arr(%rip), %ebp
	imull	960+arr(%rip), %ebp
	imull	964+arr(%rip), %ebp
	imull	968+arr(%rip), %ebp
	imull	972+arr(%rip), %ebp
	imull	976+arr(%rip), %ebp
	imull	980+arr(%rip), %ebp
	imull	984+arr(%rip), %ebp
	imull	988+arr(%rip), %ebp
	imull	992+arr(%rip), %ebp
	imull	1700+arr(%rip), %edi
	imull	1704+arr(%rip), %edi
	imull	1708+arr(%rip), %edi
	imull	1712+arr(%rip), %edi
	imull	1716+arr(%rip), %edi
	imull	1720+arr(%rip), %edi
	imull	1724+arr(%rip), %edi
	imull	1728+arr(%rip), %edi
	imull	1732+arr(%rip), %edi
	imull	1736+arr(%rip), %edi
	imull	1740+arr(%rip), %edi
	imull	1744+arr(%rip), %edi
	imull	1748+arr(%rip), %edi
	imull	1752+arr(%rip), %edi
	imull	1756+arr(%rip), %edi
	imull	1760+arr(%rip), %edi
	imull	1764+arr(%rip), %edi
	imull	1768+arr(%rip), %edi
	imull	1772+arr(%rip), %edi
	imull	1776+arr(%rip), %edi
	imull	1780+arr(%rip), %edi
	imull	1784+arr(%rip), %edi
	imull	1788+arr(%rip), %edi
	imull	1792+arr(%rip), %edi
	imull	2500+arr(%rip), %r11d
	imull	2504+arr(%rip), %r11d
	imull	2508+arr(%rip), %r11d
	imull	2512+arr(%rip), %r11d
	imull	2516+arr(%rip), %r11d
	imull	2520+arr(%rip), %r11d
	imull	2524+arr(%rip), %r11d
	imull	2528+arr(%rip), %r11d
	imull	2532+arr(%rip), %r11d
	imull	2536+arr(%rip), %r11d
	imull	2540+arr(%rip), %r11d
	imull	2544+arr(%rip), %r11d
	imull	2548+arr(%rip), %r11d
	imull	2552+arr(%rip), %r11d
	imull	2556+arr(%rip), %r11d
	imull	2560+arr(%rip), %r11d
	imull	2564+arr(%rip), %r11d
	imull	2568+arr(%rip), %r11d
	imull	2572+arr(%rip), %r11d
	imull	2576+arr(%rip), %r11d
	imull	2580+arr(%rip), %r11d
	imull	2584+arr(%rip), %r11d
	imull	2588+arr(%rip), %r11d
	imull	2592+arr(%rip), %r11d
	imull	3300+arr(%rip), %r10d
	imull	3304+arr(%rip), %r10d
	imull	3308+arr(%rip), %r10d
	imull	3312+arr(%rip), %r10d
	imull	3316+arr(%rip), %r10d
	imull	3320+arr(%rip), %r10d
	imull	3324+arr(%rip), %r10d
	imull	3328+arr(%rip), %r10d
	imull	3332+arr(%rip), %r10d
	imull	3336+arr(%rip), %r10d
	imull	3340+arr(%rip), %r10d
	imull	3344+arr(%rip), %r10d
	imull	3348+arr(%rip), %r10d
	imull	3352+arr(%rip), %r10d
	imull	3356+arr(%rip), %r10d
	imull	3360+arr(%rip), %r10d
	imull	3364+arr(%rip), %r10d
	imull	3368+arr(%rip), %r10d
	imull	3372+arr(%rip), %r10d
	imull	3376+arr(%rip), %r10d
	imull	3380+arr(%rip), %r10d
	imull	3384+arr(%rip), %r10d
	imull	3388+arr(%rip), %r10d
	imull	3392+arr(%rip), %r10d
	imull	4100+arr(%rip), %r9d
	imull	4104+arr(%rip), %r9d
	imull	4108+arr(%rip), %r9d
	imull	4112+arr(%rip), %r9d
	imull	4116+arr(%rip), %r9d
	imull	4120+arr(%rip), %r9d
	imull	4124+arr(%rip), %r9d
	imull	4128+arr(%rip), %r9d
	imull	4132+arr(%rip), %r9d
	imull	4136+arr(%rip), %r9d
	imull	4140+arr(%rip), %r9d
	imull	4144+arr(%rip), %r9d
	imull	4148+arr(%rip), %r9d
	imull	4152+arr(%rip), %r9d
	imull	4156+arr(%rip), %r9d
	imull	4160+arr(%rip), %r9d
	imull	4164+arr(%rip), %r9d
	imull	4168+arr(%rip), %r9d
	imull	4172+arr(%rip), %r9d
	imull	4176+arr(%rip), %r9d
	imull	4180+arr(%rip), %r9d
	imull	4184+arr(%rip), %r9d
	imull	4188+arr(%rip), %r9d
	imull	4192+arr(%rip), %r9d
	imull	4900+arr(%rip), %r8d
	imull	4904+arr(%rip), %r8d
	imull	4908+arr(%rip), %r8d
	imull	4912+arr(%rip), %r8d
	imull	4916+arr(%rip), %r8d
	imull	4920+arr(%rip), %r8d
	imull	4924+arr(%rip), %r8d
	imull	4928+arr(%rip), %r8d
	imull	4932+arr(%rip), %r8d
	imull	4936+arr(%rip), %r8d
	imull	4940+arr(%rip), %r8d
	imull	4944+arr(%rip), %r8d
	imull	4948+arr(%rip), %r8d
	imull	4952+arr(%rip), %r8d
	imull	4956+arr(%rip), %r8d
	imull	4960+arr(%rip), %r8d
	imull	4964+arr(%rip), %r8d
	imull	4968+arr(%rip), %r8d
	imull	4972+arr(%rip), %r8d
	imull	4976+arr(%rip), %r8d
	imull	4980+arr(%rip), %r8d
	imull	4984+arr(%rip), %r8d
	imull	4988+arr(%rip), %r8d
	imull	4992+arr(%rip), %r8d
	imull	5700+arr(%rip), %ecx
	imull	5704+arr(%rip), %ecx
	imull	5708+arr(%rip), %ecx
	imull	5712+arr(%rip), %ecx
	imull	5716+arr(%rip), %ecx
	imull	5720+arr(%rip), %ecx
	imull	5724+arr(%rip), %ecx
	imull	5728+arr(%rip), %ecx
	imull	5732+arr(%rip), %ecx
	imull	5736+arr(%rip), %ecx
	imull	5740+arr(%rip), %ecx
	imull	5744+arr(%rip), %ecx
	imull	5748+arr(%rip), %ecx
	imull	5752+arr(%rip), %ecx
	imull	5756+arr(%rip), %ecx
	imull	5760+arr(%rip), %ecx
	imull	5764+arr(%rip), %ecx
	imull	5768+arr(%rip), %ecx
	imull	5772+arr(%rip), %ecx
	imull	5776+arr(%rip), %ecx
	imull	5780+arr(%rip), %ecx
	imull	5784+arr(%rip), %ecx
	imull	5788+arr(%rip), %ecx
	imull	5792+arr(%rip), %ecx
	imull	6500+arr(%rip), %edx
	imull	6504+arr(%rip), %edx
	imull	6508+arr(%rip), %edx
	imull	6512+arr(%rip), %edx
	imull	6516+arr(%rip), %edx
	imull	6520+arr(%rip), %edx
	imull	6524+arr(%rip), %edx
	imull	6528+arr(%rip), %edx
	imull	6532+arr(%rip), %edx
	imull	6536+arr(%rip), %edx
	imull	6540+arr(%rip), %edx
	imull	6544+arr(%rip), %edx
	imull	6548+arr(%rip), %edx
	imull	6552+arr(%rip), %edx
	imull	6556+arr(%rip), %edx
	imull	6560+arr(%rip), %edx
	imull	6564+arr(%rip), %edx
	imull	6568+arr(%rip), %edx
	imull	6572+arr(%rip), %edx
	imull	6576+arr(%rip), %edx
	imull	6580+arr(%rip), %edx
	imull	6584+arr(%rip), %edx
	imull	6588+arr(%rip), %edx
	imull	6592+arr(%rip), %edx
	imull	7300+arr(%rip), %eax
	imull	7304+arr(%rip), %eax
	imull	7308+arr(%rip), %eax
	imull	7312+arr(%rip), %eax
	imull	7316+arr(%rip), %eax
	imull	7320+arr(%rip), %eax
	imull	7324+arr(%rip), %eax
	imull	7328+arr(%rip), %eax
	imull	7332+arr(%rip), %eax
	imull	7336+arr(%rip), %eax
	imull	7340+arr(%rip), %eax
	imull	7344+arr(%rip), %eax
	imull	7348+arr(%rip), %eax
	imull	7352+arr(%rip), %eax
	imull	7356+arr(%rip), %eax
	imull	7360+arr(%rip), %eax
	imull	7364+arr(%rip), %eax
	imull	7368+arr(%rip), %eax
	imull	7372+arr(%rip), %eax
	imull	7376+arr(%rip), %eax
	imull	7380+arr(%rip), %eax
	imull	7384+arr(%rip), %eax
	imull	7388+arr(%rip), %eax
	imull	7392+arr(%rip), %eax
	imull	100+arr(%rip), %r12d
	imull	104+arr(%rip), %r12d
	imull	108+arr(%rip), %r12d
	imull	112+arr(%rip), %r12d
	imull	116+arr(%rip), %r12d
	imull	120+arr(%rip), %r12d
	imull	124+arr(%rip), %r12d
	imull	128+arr(%rip), %r12d
	imull	132+arr(%rip), %r12d
	imull	136+arr(%rip), %r12d
	imull	140+arr(%rip), %r12d
	imull	144+arr(%rip), %r12d
	imull	148+arr(%rip), %r12d
	imull	152+arr(%rip), %r12d
	imull	156+arr(%rip), %r12d
	imull	160+arr(%rip), %r12d
	imull	164+arr(%rip), %r12d
	imull	168+arr(%rip), %r12d
	imull	172+arr(%rip), %r12d
	imull	176+arr(%rip), %r12d
	imull	180+arr(%rip), %r12d
	imull	184+arr(%rip), %r12d
	imull	188+arr(%rip), %r12d
	imull	192+arr(%rip), %r12d
	imull	196+arr(%rip), %r12d
	imull	996+arr(%rip), %ebp
	imull	1796+arr(%rip), %edi
	imull	2596+arr(%rip), %r11d
	imull	3396+arr(%rip), %r10d
	imull	4196+arr(%rip), %r9d
	imull	4996+arr(%rip), %r8d
	imull	5796+arr(%rip), %ecx
	imull	6596+arr(%rip), %edx
	imull	7396+arr(%rip), %eax
	imull	1000+arr(%rip), %ebp
	imull	1004+arr(%rip), %ebp
	imull	1008+arr(%rip), %ebp
	imull	1012+arr(%rip), %ebp
	imull	1016+arr(%rip), %ebp
	imull	1020+arr(%rip), %ebp
	imull	1024+arr(%rip), %ebp
	imull	1028+arr(%rip), %ebp
	imull	1032+arr(%rip), %ebp
	imull	1036+arr(%rip), %ebp
	imull	1040+arr(%rip), %ebp
	imull	1044+arr(%rip), %ebp
	imull	1048+arr(%rip), %ebp
	imull	1052+arr(%rip), %ebp
	imull	1056+arr(%rip), %ebp
	imull	1060+arr(%rip), %ebp
	imull	1064+arr(%rip), %ebp
	imull	1068+arr(%rip), %ebp
	imull	1072+arr(%rip), %ebp
	imull	1076+arr(%rip), %ebp
	imull	1080+arr(%rip), %ebp
	imull	1084+arr(%rip), %ebp
	imull	1088+arr(%rip), %ebp
	imull	1092+arr(%rip), %ebp
	imull	1800+arr(%rip), %edi
	imull	1804+arr(%rip), %edi
	imull	1808+arr(%rip), %edi
	imull	1812+arr(%rip), %edi
	imull	1816+arr(%rip), %edi
	imull	1820+arr(%rip), %edi
	imull	1824+arr(%rip), %edi
	imull	1828+arr(%rip), %edi
	imull	1832+arr(%rip), %edi
	imull	1836+arr(%rip), %edi
	imull	1840+arr(%rip), %edi
	imull	1844+arr(%rip), %edi
	imull	1848+arr(%rip), %edi
	imull	1852+arr(%rip), %edi
	imull	1856+arr(%rip), %edi
	imull	1860+arr(%rip), %edi
	imull	1864+arr(%rip), %edi
	imull	1868+arr(%rip), %edi
	imull	1872+arr(%rip), %edi
	imull	1876+arr(%rip), %edi
	imull	1880+arr(%rip), %edi
	imull	1884+arr(%rip), %edi
	imull	1888+arr(%rip), %edi
	imull	1892+arr(%rip), %edi
	imull	2600+arr(%rip), %r11d
	imull	2604+arr(%rip), %r11d
	imull	2608+arr(%rip), %r11d
	imull	2612+arr(%rip), %r11d
	imull	2616+arr(%rip), %r11d
	imull	2620+arr(%rip), %r11d
	imull	2624+arr(%rip), %r11d
	imull	2628+arr(%rip), %r11d
	imull	2632+arr(%rip), %r11d
	imull	2636+arr(%rip), %r11d
	imull	2640+arr(%rip), %r11d
	imull	2644+arr(%rip), %r11d
	imull	2648+arr(%rip), %r11d
	imull	2652+arr(%rip), %r11d
	imull	2656+arr(%rip), %r11d
	imull	2660+arr(%rip), %r11d
	imull	2664+arr(%rip), %r11d
	imull	2668+arr(%rip), %r11d
	imull	2672+arr(%rip), %r11d
	imull	2676+arr(%rip), %r11d
	imull	2680+arr(%rip), %r11d
	imull	2684+arr(%rip), %r11d
	imull	2688+arr(%rip), %r11d
	imull	2692+arr(%rip), %r11d
	imull	3400+arr(%rip), %r10d
	imull	3404+arr(%rip), %r10d
	imull	3408+arr(%rip), %r10d
	imull	3412+arr(%rip), %r10d
	imull	3416+arr(%rip), %r10d
	imull	3420+arr(%rip), %r10d
	imull	3424+arr(%rip), %r10d
	imull	3428+arr(%rip), %r10d
	imull	3432+arr(%rip), %r10d
	imull	3436+arr(%rip), %r10d
	imull	3440+arr(%rip), %r10d
	imull	3444+arr(%rip), %r10d
	imull	3448+arr(%rip), %r10d
	imull	3452+arr(%rip), %r10d
	imull	3456+arr(%rip), %r10d
	imull	3460+arr(%rip), %r10d
	imull	3464+arr(%rip), %r10d
	imull	3468+arr(%rip), %r10d
	imull	3472+arr(%rip), %r10d
	imull	3476+arr(%rip), %r10d
	imull	3480+arr(%rip), %r10d
	imull	3484+arr(%rip), %r10d
	imull	3488+arr(%rip), %r10d
	imull	3492+arr(%rip), %r10d
	imull	4200+arr(%rip), %r9d
	imull	4204+arr(%rip), %r9d
	imull	4208+arr(%rip), %r9d
	imull	4212+arr(%rip), %r9d
	imull	4216+arr(%rip), %r9d
	imull	4220+arr(%rip), %r9d
	imull	4224+arr(%rip), %r9d
	imull	4228+arr(%rip), %r9d
	imull	4232+arr(%rip), %r9d
	imull	4236+arr(%rip), %r9d
	imull	4240+arr(%rip), %r9d
	imull	4244+arr(%rip), %r9d
	imull	4248+arr(%rip), %r9d
	imull	4252+arr(%rip), %r9d
	imull	4256+arr(%rip), %r9d
	imull	4260+arr(%rip), %r9d
	imull	4264+arr(%rip), %r9d
	imull	4268+arr(%rip), %r9d
	imull	4272+arr(%rip), %r9d
	imull	4276+arr(%rip), %r9d
	imull	4280+arr(%rip), %r9d
	imull	4284+arr(%rip), %r9d
	imull	4288+arr(%rip), %r9d
	imull	4292+arr(%rip), %r9d
	imull	5000+arr(%rip), %r8d
	imull	5004+arr(%rip), %r8d
	imull	5008+arr(%rip), %r8d
	imull	5012+arr(%rip), %r8d
	imull	5016+arr(%rip), %r8d
	imull	5020+arr(%rip), %r8d
	imull	5024+arr(%rip), %r8d
	imull	5028+arr(%rip), %r8d
	imull	5032+arr(%rip), %r8d
	imull	5036+arr(%rip), %r8d
	imull	5040+arr(%rip), %r8d
	imull	5044+arr(%rip), %r8d
	imull	5048+arr(%rip), %r8d
	imull	5052+arr(%rip), %r8d
	imull	5056+arr(%rip), %r8d
	imull	5060+arr(%rip), %r8d
	imull	5064+arr(%rip), %r8d
	imull	5068+arr(%rip), %r8d
	imull	5072+arr(%rip), %r8d
	imull	5076+arr(%rip), %r8d
	imull	5080+arr(%rip), %r8d
	imull	5084+arr(%rip), %r8d
	imull	5088+arr(%rip), %r8d
	imull	5092+arr(%rip), %r8d
	imull	5800+arr(%rip), %ecx
	imull	5804+arr(%rip), %ecx
	imull	5808+arr(%rip), %ecx
	imull	5812+arr(%rip), %ecx
	imull	5816+arr(%rip), %ecx
	imull	5820+arr(%rip), %ecx
	imull	5824+arr(%rip), %ecx
	imull	5828+arr(%rip), %ecx
	imull	5832+arr(%rip), %ecx
	imull	5836+arr(%rip), %ecx
	imull	5840+arr(%rip), %ecx
	imull	5844+arr(%rip), %ecx
	imull	5848+arr(%rip), %ecx
	imull	5852+arr(%rip), %ecx
	imull	5856+arr(%rip), %ecx
	imull	5860+arr(%rip), %ecx
	imull	5864+arr(%rip), %ecx
	imull	5868+arr(%rip), %ecx
	imull	5872+arr(%rip), %ecx
	imull	5876+arr(%rip), %ecx
	imull	5880+arr(%rip), %ecx
	imull	5884+arr(%rip), %ecx
	imull	5888+arr(%rip), %ecx
	imull	5892+arr(%rip), %ecx
	imull	6600+arr(%rip), %edx
	imull	6604+arr(%rip), %edx
	imull	6608+arr(%rip), %edx
	imull	6612+arr(%rip), %edx
	imull	6616+arr(%rip), %edx
	imull	6620+arr(%rip), %edx
	imull	6624+arr(%rip), %edx
	imull	6628+arr(%rip), %edx
	imull	6632+arr(%rip), %edx
	imull	6636+arr(%rip), %edx
	imull	6640+arr(%rip), %edx
	imull	6644+arr(%rip), %edx
	imull	6648+arr(%rip), %edx
	imull	6652+arr(%rip), %edx
	imull	6656+arr(%rip), %edx
	imull	6660+arr(%rip), %edx
	imull	6664+arr(%rip), %edx
	imull	6668+arr(%rip), %edx
	imull	6672+arr(%rip), %edx
	imull	6676+arr(%rip), %edx
	imull	6680+arr(%rip), %edx
	imull	6684+arr(%rip), %edx
	imull	6688+arr(%rip), %edx
	imull	6692+arr(%rip), %edx
	imull	7400+arr(%rip), %eax
	imull	7404+arr(%rip), %eax
	imull	7408+arr(%rip), %eax
	imull	7412+arr(%rip), %eax
	imull	7416+arr(%rip), %eax
	imull	7420+arr(%rip), %eax
	imull	7424+arr(%rip), %eax
	imull	7428+arr(%rip), %eax
	imull	7432+arr(%rip), %eax
	imull	7436+arr(%rip), %eax
	imull	7440+arr(%rip), %eax
	imull	7444+arr(%rip), %eax
	imull	7448+arr(%rip), %eax
	imull	7452+arr(%rip), %eax
	imull	7456+arr(%rip), %eax
	imull	7460+arr(%rip), %eax
	imull	7464+arr(%rip), %eax
	imull	7468+arr(%rip), %eax
	imull	7472+arr(%rip), %eax
	imull	7476+arr(%rip), %eax
	imull	7480+arr(%rip), %eax
	imull	7484+arr(%rip), %eax
	imull	7488+arr(%rip), %eax
	imull	7492+arr(%rip), %eax
	imull	200+arr(%rip), %r12d
	imull	204+arr(%rip), %r12d
	imull	208+arr(%rip), %r12d
	imull	212+arr(%rip), %r12d
	imull	216+arr(%rip), %r12d
	imull	220+arr(%rip), %r12d
	imull	224+arr(%rip), %r12d
	imull	228+arr(%rip), %r12d
	imull	232+arr(%rip), %r12d
	imull	236+arr(%rip), %r12d
	imull	240+arr(%rip), %r12d
	imull	244+arr(%rip), %r12d
	imull	248+arr(%rip), %r12d
	imull	252+arr(%rip), %r12d
	imull	256+arr(%rip), %r12d
	imull	260+arr(%rip), %r12d
	imull	264+arr(%rip), %r12d
	imull	268+arr(%rip), %r12d
	imull	272+arr(%rip), %r12d
	imull	276+arr(%rip), %r12d
	imull	280+arr(%rip), %r12d
	imull	284+arr(%rip), %r12d
	imull	288+arr(%rip), %r12d
	imull	292+arr(%rip), %r12d
	imull	296+arr(%rip), %r12d
	imull	1096+arr(%rip), %ebp
	imull	1896+arr(%rip), %edi
	imull	2696+arr(%rip), %r11d
	imull	3496+arr(%rip), %r10d
	imull	4296+arr(%rip), %r9d
	imull	5096+arr(%rip), %r8d
	imull	5896+arr(%rip), %ecx
	imull	6696+arr(%rip), %edx
	imull	7496+arr(%rip), %eax
	imull	1100+arr(%rip), %ebp
	imull	1104+arr(%rip), %ebp
	imull	1108+arr(%rip), %ebp
	imull	1112+arr(%rip), %ebp
	imull	1116+arr(%rip), %ebp
	imull	1120+arr(%rip), %ebp
	imull	1124+arr(%rip), %ebp
	imull	1128+arr(%rip), %ebp
	imull	1132+arr(%rip), %ebp
	imull	1136+arr(%rip), %ebp
	imull	1140+arr(%rip), %ebp
	imull	1144+arr(%rip), %ebp
	imull	1148+arr(%rip), %ebp
	imull	1152+arr(%rip), %ebp
	imull	1156+arr(%rip), %ebp
	imull	1160+arr(%rip), %ebp
	imull	1164+arr(%rip), %ebp
	imull	1168+arr(%rip), %ebp
	imull	1172+arr(%rip), %ebp
	imull	1176+arr(%rip), %ebp
	imull	1180+arr(%rip), %ebp
	imull	1184+arr(%rip), %ebp
	imull	1188+arr(%rip), %ebp
	imull	1192+arr(%rip), %ebp
	imull	1900+arr(%rip), %edi
	imull	1904+arr(%rip), %edi
	imull	1908+arr(%rip), %edi
	imull	1912+arr(%rip), %edi
	imull	1916+arr(%rip), %edi
	imull	1920+arr(%rip), %edi
	imull	1924+arr(%rip), %edi
	imull	1928+arr(%rip), %edi
	imull	1932+arr(%rip), %edi
	imull	1936+arr(%rip), %edi
	imull	1940+arr(%rip), %edi
	imull	1944+arr(%rip), %edi
	imull	1948+arr(%rip), %edi
	imull	1952+arr(%rip), %edi
	imull	1956+arr(%rip), %edi
	imull	1960+arr(%rip), %edi
	imull	1964+arr(%rip), %edi
	imull	1968+arr(%rip), %edi
	imull	1972+arr(%rip), %edi
	imull	1976+arr(%rip), %edi
	imull	1980+arr(%rip), %edi
	imull	1984+arr(%rip), %edi
	imull	1988+arr(%rip), %edi
	imull	1992+arr(%rip), %edi
	imull	2700+arr(%rip), %r11d
	imull	2704+arr(%rip), %r11d
	imull	2708+arr(%rip), %r11d
	imull	2712+arr(%rip), %r11d
	imull	2716+arr(%rip), %r11d
	imull	2720+arr(%rip), %r11d
	imull	2724+arr(%rip), %r11d
	imull	2728+arr(%rip), %r11d
	imull	2732+arr(%rip), %r11d
	imull	2736+arr(%rip), %r11d
	imull	2740+arr(%rip), %r11d
	imull	2744+arr(%rip), %r11d
	imull	2748+arr(%rip), %r11d
	imull	2752+arr(%rip), %r11d
	imull	2756+arr(%rip), %r11d
	imull	2760+arr(%rip), %r11d
	imull	2764+arr(%rip), %r11d
	imull	2768+arr(%rip), %r11d
	imull	2772+arr(%rip), %r11d
	imull	2776+arr(%rip), %r11d
	imull	2780+arr(%rip), %r11d
	imull	2784+arr(%rip), %r11d
	imull	2788+arr(%rip), %r11d
	imull	2792+arr(%rip), %r11d
	imull	3500+arr(%rip), %r10d
	imull	3504+arr(%rip), %r10d
	imull	3508+arr(%rip), %r10d
	imull	3512+arr(%rip), %r10d
	imull	3516+arr(%rip), %r10d
	imull	3520+arr(%rip), %r10d
	imull	3524+arr(%rip), %r10d
	imull	3528+arr(%rip), %r10d
	imull	3532+arr(%rip), %r10d
	imull	3536+arr(%rip), %r10d
	imull	3540+arr(%rip), %r10d
	imull	3544+arr(%rip), %r10d
	imull	3548+arr(%rip), %r10d
	imull	3552+arr(%rip), %r10d
	imull	3556+arr(%rip), %r10d
	imull	3560+arr(%rip), %r10d
	imull	3564+arr(%rip), %r10d
	imull	3568+arr(%rip), %r10d
	imull	3572+arr(%rip), %r10d
	imull	3576+arr(%rip), %r10d
	imull	3580+arr(%rip), %r10d
	imull	3584+arr(%rip), %r10d
	imull	3588+arr(%rip), %r10d
	imull	3592+arr(%rip), %r10d
	imull	4300+arr(%rip), %r9d
	imull	4304+arr(%rip), %r9d
	imull	4308+arr(%rip), %r9d
	imull	4312+arr(%rip), %r9d
	imull	4316+arr(%rip), %r9d
	imull	4320+arr(%rip), %r9d
	imull	4324+arr(%rip), %r9d
	imull	4328+arr(%rip), %r9d
	imull	4332+arr(%rip), %r9d
	imull	4336+arr(%rip), %r9d
	imull	4340+arr(%rip), %r9d
	imull	4344+arr(%rip), %r9d
	imull	4348+arr(%rip), %r9d
	imull	4352+arr(%rip), %r9d
	imull	4356+arr(%rip), %r9d
	imull	4360+arr(%rip), %r9d
	imull	4364+arr(%rip), %r9d
	imull	4368+arr(%rip), %r9d
	imull	4372+arr(%rip), %r9d
	imull	4376+arr(%rip), %r9d
	imull	4380+arr(%rip), %r9d
	imull	4384+arr(%rip), %r9d
	imull	4388+arr(%rip), %r9d
	imull	4392+arr(%rip), %r9d
	imull	5100+arr(%rip), %r8d
	imull	5104+arr(%rip), %r8d
	imull	5108+arr(%rip), %r8d
	imull	5112+arr(%rip), %r8d
	imull	5116+arr(%rip), %r8d
	imull	5120+arr(%rip), %r8d
	imull	5124+arr(%rip), %r8d
	imull	5128+arr(%rip), %r8d
	imull	5132+arr(%rip), %r8d
	imull	5136+arr(%rip), %r8d
	imull	5140+arr(%rip), %r8d
	imull	5144+arr(%rip), %r8d
	imull	5148+arr(%rip), %r8d
	imull	5152+arr(%rip), %r8d
	imull	5156+arr(%rip), %r8d
	imull	5160+arr(%rip), %r8d
	imull	5164+arr(%rip), %r8d
	imull	5168+arr(%rip), %r8d
	imull	5172+arr(%rip), %r8d
	imull	5176+arr(%rip), %r8d
	imull	5180+arr(%rip), %r8d
	imull	5184+arr(%rip), %r8d
	imull	5188+arr(%rip), %r8d
	imull	5192+arr(%rip), %r8d
	imull	5900+arr(%rip), %ecx
	imull	5904+arr(%rip), %ecx
	imull	5908+arr(%rip), %ecx
	imull	5912+arr(%rip), %ecx
	imull	5916+arr(%rip), %ecx
	imull	5920+arr(%rip), %ecx
	imull	5924+arr(%rip), %ecx
	imull	5928+arr(%rip), %ecx
	imull	5932+arr(%rip), %ecx
	imull	5936+arr(%rip), %ecx
	imull	5940+arr(%rip), %ecx
	imull	5944+arr(%rip), %ecx
	imull	5948+arr(%rip), %ecx
	imull	5952+arr(%rip), %ecx
	imull	5956+arr(%rip), %ecx
	imull	5960+arr(%rip), %ecx
	imull	5964+arr(%rip), %ecx
	imull	5968+arr(%rip), %ecx
	imull	5972+arr(%rip), %ecx
	imull	5976+arr(%rip), %ecx
	imull	5980+arr(%rip), %ecx
	imull	5984+arr(%rip), %ecx
	imull	5988+arr(%rip), %ecx
	imull	5992+arr(%rip), %ecx
	imull	6700+arr(%rip), %edx
	imull	6704+arr(%rip), %edx
	imull	6708+arr(%rip), %edx
	imull	6712+arr(%rip), %edx
	imull	6716+arr(%rip), %edx
	imull	6720+arr(%rip), %edx
	imull	6724+arr(%rip), %edx
	imull	6728+arr(%rip), %edx
	imull	6732+arr(%rip), %edx
	imull	6736+arr(%rip), %edx
	imull	6740+arr(%rip), %edx
	imull	6744+arr(%rip), %edx
	imull	6748+arr(%rip), %edx
	imull	6752+arr(%rip), %edx
	imull	6756+arr(%rip), %edx
	imull	6760+arr(%rip), %edx
	imull	6764+arr(%rip), %edx
	imull	6768+arr(%rip), %edx
	imull	6772+arr(%rip), %edx
	imull	6776+arr(%rip), %edx
	imull	6780+arr(%rip), %edx
	imull	6784+arr(%rip), %edx
	imull	6788+arr(%rip), %edx
	imull	6792+arr(%rip), %edx
	imull	7500+arr(%rip), %eax
	imull	7504+arr(%rip), %eax
	imull	7508+arr(%rip), %eax
	imull	7512+arr(%rip), %eax
	imull	7516+arr(%rip), %eax
	imull	7520+arr(%rip), %eax
	imull	7524+arr(%rip), %eax
	imull	7528+arr(%rip), %eax
	imull	7532+arr(%rip), %eax
	imull	7536+arr(%rip), %eax
	imull	7540+arr(%rip), %eax
	imull	7544+arr(%rip), %eax
	imull	7548+arr(%rip), %eax
	imull	7552+arr(%rip), %eax
	imull	7556+arr(%rip), %eax
	imull	7560+arr(%rip), %eax
	imull	7564+arr(%rip), %eax
	imull	7568+arr(%rip), %eax
	imull	7572+arr(%rip), %eax
	imull	7576+arr(%rip), %eax
	imull	7580+arr(%rip), %eax
	imull	7584+arr(%rip), %eax
	imull	7588+arr(%rip), %eax
	imull	7592+arr(%rip), %eax
	imull	300+arr(%rip), %r12d
	imull	304+arr(%rip), %r12d
	imull	308+arr(%rip), %r12d
	imull	312+arr(%rip), %r12d
	imull	316+arr(%rip), %r12d
	imull	320+arr(%rip), %r12d
	imull	324+arr(%rip), %r12d
	imull	328+arr(%rip), %r12d
	imull	332+arr(%rip), %r12d
	imull	336+arr(%rip), %r12d
	imull	340+arr(%rip), %r12d
	imull	344+arr(%rip), %r12d
	imull	348+arr(%rip), %r12d
	imull	352+arr(%rip), %r12d
	imull	356+arr(%rip), %r12d
	imull	360+arr(%rip), %r12d
	imull	364+arr(%rip), %r12d
	imull	368+arr(%rip), %r12d
	imull	372+arr(%rip), %r12d
	imull	376+arr(%rip), %r12d
	imull	380+arr(%rip), %r12d
	imull	384+arr(%rip), %r12d
	imull	388+arr(%rip), %r12d
	imull	392+arr(%rip), %r12d
	imull	396+arr(%rip), %r12d
	imull	1196+arr(%rip), %ebp
	imull	1996+arr(%rip), %edi
	imull	2796+arr(%rip), %r11d
	imull	3596+arr(%rip), %r10d
	imull	4396+arr(%rip), %r9d
	imull	5196+arr(%rip), %r8d
	imull	5996+arr(%rip), %ecx
	imull	6796+arr(%rip), %edx
	imull	7596+arr(%rip), %eax
	imull	1200+arr(%rip), %ebp
	imull	1204+arr(%rip), %ebp
	imull	1208+arr(%rip), %ebp
	imull	1212+arr(%rip), %ebp
	imull	1216+arr(%rip), %ebp
	imull	1220+arr(%rip), %ebp
	imull	1224+arr(%rip), %ebp
	imull	1228+arr(%rip), %ebp
	imull	1232+arr(%rip), %ebp
	imull	1236+arr(%rip), %ebp
	imull	1240+arr(%rip), %ebp
	imull	1244+arr(%rip), %ebp
	imull	1248+arr(%rip), %ebp
	imull	1252+arr(%rip), %ebp
	imull	1256+arr(%rip), %ebp
	imull	1260+arr(%rip), %ebp
	imull	1264+arr(%rip), %ebp
	imull	1268+arr(%rip), %ebp
	imull	1272+arr(%rip), %ebp
	imull	1276+arr(%rip), %ebp
	imull	1280+arr(%rip), %ebp
	imull	1284+arr(%rip), %ebp
	imull	1288+arr(%rip), %ebp
	imull	1292+arr(%rip), %ebp
	imull	2000+arr(%rip), %edi
	imull	2004+arr(%rip), %edi
	imull	2008+arr(%rip), %edi
	imull	2012+arr(%rip), %edi
	imull	2016+arr(%rip), %edi
	imull	2020+arr(%rip), %edi
	imull	2024+arr(%rip), %edi
	imull	2028+arr(%rip), %edi
	imull	2032+arr(%rip), %edi
	imull	2036+arr(%rip), %edi
	imull	2040+arr(%rip), %edi
	imull	2044+arr(%rip), %edi
	imull	2048+arr(%rip), %edi
	imull	2052+arr(%rip), %edi
	imull	2056+arr(%rip), %edi
	imull	2060+arr(%rip), %edi
	imull	2064+arr(%rip), %edi
	imull	2068+arr(%rip), %edi
	imull	2072+arr(%rip), %edi
	imull	2076+arr(%rip), %edi
	imull	2080+arr(%rip), %edi
	imull	2084+arr(%rip), %edi
	imull	2088+arr(%rip), %edi
	imull	2092+arr(%rip), %edi
	imull	2800+arr(%rip), %r11d
	imull	2804+arr(%rip), %r11d
	imull	2808+arr(%rip), %r11d
	imull	2812+arr(%rip), %r11d
	imull	2816+arr(%rip), %r11d
	imull	2820+arr(%rip), %r11d
	imull	2824+arr(%rip), %r11d
	imull	2828+arr(%rip), %r11d
	imull	2832+arr(%rip), %r11d
	imull	2836+arr(%rip), %r11d
	imull	2840+arr(%rip), %r11d
	imull	2844+arr(%rip), %r11d
	imull	2848+arr(%rip), %r11d
	imull	2852+arr(%rip), %r11d
	imull	2856+arr(%rip), %r11d
	imull	2860+arr(%rip), %r11d
	imull	2864+arr(%rip), %r11d
	imull	2868+arr(%rip), %r11d
	imull	2872+arr(%rip), %r11d
	imull	2876+arr(%rip), %r11d
	imull	2880+arr(%rip), %r11d
	imull	2884+arr(%rip), %r11d
	imull	2888+arr(%rip), %r11d
	imull	2892+arr(%rip), %r11d
	imull	3600+arr(%rip), %r10d
	imull	3604+arr(%rip), %r10d
	imull	3608+arr(%rip), %r10d
	imull	3612+arr(%rip), %r10d
	imull	3616+arr(%rip), %r10d
	imull	3620+arr(%rip), %r10d
	imull	3624+arr(%rip), %r10d
	imull	3628+arr(%rip), %r10d
	imull	3632+arr(%rip), %r10d
	imull	3636+arr(%rip), %r10d
	imull	3640+arr(%rip), %r10d
	imull	3644+arr(%rip), %r10d
	imull	3648+arr(%rip), %r10d
	imull	3652+arr(%rip), %r10d
	imull	3656+arr(%rip), %r10d
	imull	3660+arr(%rip), %r10d
	imull	3664+arr(%rip), %r10d
	imull	3668+arr(%rip), %r10d
	imull	3672+arr(%rip), %r10d
	imull	3676+arr(%rip), %r10d
	imull	3680+arr(%rip), %r10d
	imull	3684+arr(%rip), %r10d
	imull	3688+arr(%rip), %r10d
	imull	3692+arr(%rip), %r10d
	imull	4400+arr(%rip), %r9d
	imull	4404+arr(%rip), %r9d
	imull	4408+arr(%rip), %r9d
	imull	4412+arr(%rip), %r9d
	imull	4416+arr(%rip), %r9d
	imull	4420+arr(%rip), %r9d
	imull	4424+arr(%rip), %r9d
	imull	4428+arr(%rip), %r9d
	imull	4432+arr(%rip), %r9d
	imull	4436+arr(%rip), %r9d
	imull	4440+arr(%rip), %r9d
	imull	4444+arr(%rip), %r9d
	imull	4448+arr(%rip), %r9d
	imull	4452+arr(%rip), %r9d
	imull	4456+arr(%rip), %r9d
	imull	4460+arr(%rip), %r9d
	imull	4464+arr(%rip), %r9d
	imull	4468+arr(%rip), %r9d
	imull	4472+arr(%rip), %r9d
	imull	4476+arr(%rip), %r9d
	imull	4480+arr(%rip), %r9d
	imull	4484+arr(%rip), %r9d
	imull	4488+arr(%rip), %r9d
	imull	4492+arr(%rip), %r9d
	imull	5200+arr(%rip), %r8d
	imull	5204+arr(%rip), %r8d
	imull	5208+arr(%rip), %r8d
	imull	5212+arr(%rip), %r8d
	imull	5216+arr(%rip), %r8d
	imull	5220+arr(%rip), %r8d
	imull	5224+arr(%rip), %r8d
	imull	5228+arr(%rip), %r8d
	imull	5232+arr(%rip), %r8d
	imull	5236+arr(%rip), %r8d
	imull	5240+arr(%rip), %r8d
	imull	5244+arr(%rip), %r8d
	imull	5248+arr(%rip), %r8d
	imull	5252+arr(%rip), %r8d
	imull	5256+arr(%rip), %r8d
	imull	5260+arr(%rip), %r8d
	imull	5264+arr(%rip), %r8d
	imull	5268+arr(%rip), %r8d
	imull	5272+arr(%rip), %r8d
	imull	5276+arr(%rip), %r8d
	imull	5280+arr(%rip), %r8d
	imull	5284+arr(%rip), %r8d
	imull	5288+arr(%rip), %r8d
	imull	5292+arr(%rip), %r8d
	imull	6000+arr(%rip), %ecx
	imull	6004+arr(%rip), %ecx
	imull	6008+arr(%rip), %ecx
	imull	6012+arr(%rip), %ecx
	imull	6016+arr(%rip), %ecx
	imull	6020+arr(%rip), %ecx
	imull	6024+arr(%rip), %ecx
	imull	6028+arr(%rip), %ecx
	imull	6032+arr(%rip), %ecx
	imull	6036+arr(%rip), %ecx
	imull	6040+arr(%rip), %ecx
	imull	6044+arr(%rip), %ecx
	imull	6048+arr(%rip), %ecx
	imull	6052+arr(%rip), %ecx
	imull	6056+arr(%rip), %ecx
	imull	6060+arr(%rip), %ecx
	imull	6064+arr(%rip), %ecx
	imull	6068+arr(%rip), %ecx
	imull	6072+arr(%rip), %ecx
	imull	6076+arr(%rip), %ecx
	imull	6080+arr(%rip), %ecx
	imull	6084+arr(%rip), %ecx
	imull	6088+arr(%rip), %ecx
	imull	6092+arr(%rip), %ecx
	imull	6800+arr(%rip), %edx
	imull	6804+arr(%rip), %edx
	imull	6808+arr(%rip), %edx
	imull	6812+arr(%rip), %edx
	imull	6816+arr(%rip), %edx
	imull	6820+arr(%rip), %edx
	imull	6824+arr(%rip), %edx
	imull	6828+arr(%rip), %edx
	imull	6832+arr(%rip), %edx
	imull	6836+arr(%rip), %edx
	imull	6840+arr(%rip), %edx
	imull	6844+arr(%rip), %edx
	imull	6848+arr(%rip), %edx
	imull	6852+arr(%rip), %edx
	imull	6856+arr(%rip), %edx
	imull	6860+arr(%rip), %edx
	imull	6864+arr(%rip), %edx
	imull	6868+arr(%rip), %edx
	imull	6872+arr(%rip), %edx
	imull	6876+arr(%rip), %edx
	imull	6880+arr(%rip), %edx
	imull	6884+arr(%rip), %edx
	imull	6888+arr(%rip), %edx
	imull	6892+arr(%rip), %edx
	imull	7600+arr(%rip), %eax
	imull	7604+arr(%rip), %eax
	imull	7608+arr(%rip), %eax
	imull	7612+arr(%rip), %eax
	imull	7616+arr(%rip), %eax
	imull	7620+arr(%rip), %eax
	imull	7624+arr(%rip), %eax
	imull	7628+arr(%rip), %eax
	imull	7632+arr(%rip), %eax
	imull	7636+arr(%rip), %eax
	imull	7640+arr(%rip), %eax
	imull	7644+arr(%rip), %eax
	imull	7648+arr(%rip), %eax
	imull	7652+arr(%rip), %eax
	imull	7656+arr(%rip), %eax
	imull	7660+arr(%rip), %eax
	imull	7664+arr(%rip), %eax
	imull	7668+arr(%rip), %eax
	imull	7672+arr(%rip), %eax
	imull	7676+arr(%rip), %eax
	imull	7680+arr(%rip), %eax
	imull	7684+arr(%rip), %eax
	imull	7688+arr(%rip), %eax
	imull	7692+arr(%rip), %eax
	imull	400+arr(%rip), %r12d
	imull	404+arr(%rip), %r12d
	imull	408+arr(%rip), %r12d
	imull	412+arr(%rip), %r12d
	imull	416+arr(%rip), %r12d
	imull	420+arr(%rip), %r12d
	imull	424+arr(%rip), %r12d
	imull	428+arr(%rip), %r12d
	imull	432+arr(%rip), %r12d
	imull	436+arr(%rip), %r12d
	imull	440+arr(%rip), %r12d
	imull	444+arr(%rip), %r12d
	imull	448+arr(%rip), %r12d
	imull	452+arr(%rip), %r12d
	imull	456+arr(%rip), %r12d
	imull	460+arr(%rip), %r12d
	imull	464+arr(%rip), %r12d
	imull	468+arr(%rip), %r12d
	imull	472+arr(%rip), %r12d
	imull	476+arr(%rip), %r12d
	imull	480+arr(%rip), %r12d
	imull	484+arr(%rip), %r12d
	imull	488+arr(%rip), %r12d
	imull	492+arr(%rip), %r12d
	imull	496+arr(%rip), %r12d
	imull	1296+arr(%rip), %ebp
	imull	2096+arr(%rip), %edi
	imull	2896+arr(%rip), %r11d
	imull	3696+arr(%rip), %r10d
	imull	4496+arr(%rip), %r9d
	imull	5296+arr(%rip), %r8d
	imull	6096+arr(%rip), %ecx
	imull	6896+arr(%rip), %edx
	imull	7696+arr(%rip), %eax
	imull	1300+arr(%rip), %ebp
	imull	1304+arr(%rip), %ebp
	imull	1308+arr(%rip), %ebp
	imull	1312+arr(%rip), %ebp
	imull	1316+arr(%rip), %ebp
	imull	1320+arr(%rip), %ebp
	imull	1324+arr(%rip), %ebp
	imull	1328+arr(%rip), %ebp
	imull	1332+arr(%rip), %ebp
	imull	1336+arr(%rip), %ebp
	imull	1340+arr(%rip), %ebp
	imull	1344+arr(%rip), %ebp
	imull	1348+arr(%rip), %ebp
	imull	1352+arr(%rip), %ebp
	imull	1356+arr(%rip), %ebp
	imull	1360+arr(%rip), %ebp
	imull	1364+arr(%rip), %ebp
	imull	1368+arr(%rip), %ebp
	imull	1372+arr(%rip), %ebp
	imull	1376+arr(%rip), %ebp
	imull	1380+arr(%rip), %ebp
	imull	1384+arr(%rip), %ebp
	imull	1388+arr(%rip), %ebp
	imull	1392+arr(%rip), %ebp
	imull	2100+arr(%rip), %edi
	imull	2104+arr(%rip), %edi
	imull	2108+arr(%rip), %edi
	imull	2112+arr(%rip), %edi
	imull	2116+arr(%rip), %edi
	imull	2120+arr(%rip), %edi
	imull	2124+arr(%rip), %edi
	imull	2128+arr(%rip), %edi
	imull	2132+arr(%rip), %edi
	imull	2136+arr(%rip), %edi
	imull	2140+arr(%rip), %edi
	imull	2144+arr(%rip), %edi
	imull	2148+arr(%rip), %edi
	imull	2152+arr(%rip), %edi
	imull	2156+arr(%rip), %edi
	imull	2160+arr(%rip), %edi
	imull	2164+arr(%rip), %edi
	imull	2168+arr(%rip), %edi
	imull	2172+arr(%rip), %edi
	imull	2176+arr(%rip), %edi
	imull	2180+arr(%rip), %edi
	imull	2184+arr(%rip), %edi
	imull	2188+arr(%rip), %edi
	imull	2192+arr(%rip), %edi
	imull	2900+arr(%rip), %r11d
	imull	2904+arr(%rip), %r11d
	imull	2908+arr(%rip), %r11d
	imull	2912+arr(%rip), %r11d
	imull	2916+arr(%rip), %r11d
	imull	2920+arr(%rip), %r11d
	imull	2924+arr(%rip), %r11d
	imull	2928+arr(%rip), %r11d
	imull	2932+arr(%rip), %r11d
	imull	2936+arr(%rip), %r11d
	imull	2940+arr(%rip), %r11d
	imull	2944+arr(%rip), %r11d
	imull	2948+arr(%rip), %r11d
	imull	2952+arr(%rip), %r11d
	imull	2956+arr(%rip), %r11d
	imull	2960+arr(%rip), %r11d
	imull	2964+arr(%rip), %r11d
	imull	2968+arr(%rip), %r11d
	imull	2972+arr(%rip), %r11d
	imull	2976+arr(%rip), %r11d
	imull	2980+arr(%rip), %r11d
	imull	2984+arr(%rip), %r11d
	imull	2988+arr(%rip), %r11d
	imull	2992+arr(%rip), %r11d
	imull	3700+arr(%rip), %r10d
	imull	3704+arr(%rip), %r10d
	imull	3708+arr(%rip), %r10d
	imull	3712+arr(%rip), %r10d
	imull	3716+arr(%rip), %r10d
	imull	3720+arr(%rip), %r10d
	imull	3724+arr(%rip), %r10d
	imull	3728+arr(%rip), %r10d
	imull	3732+arr(%rip), %r10d
	imull	3736+arr(%rip), %r10d
	imull	3740+arr(%rip), %r10d
	imull	3744+arr(%rip), %r10d
	imull	3748+arr(%rip), %r10d
	imull	3752+arr(%rip), %r10d
	imull	3756+arr(%rip), %r10d
	imull	3760+arr(%rip), %r10d
	imull	3764+arr(%rip), %r10d
	imull	3768+arr(%rip), %r10d
	imull	3772+arr(%rip), %r10d
	imull	3776+arr(%rip), %r10d
	imull	3780+arr(%rip), %r10d
	imull	3784+arr(%rip), %r10d
	imull	3788+arr(%rip), %r10d
	imull	3792+arr(%rip), %r10d
	imull	4500+arr(%rip), %r9d
	imull	4504+arr(%rip), %r9d
	imull	4508+arr(%rip), %r9d
	imull	4512+arr(%rip), %r9d
	imull	4516+arr(%rip), %r9d
	imull	4520+arr(%rip), %r9d
	imull	4524+arr(%rip), %r9d
	imull	4528+arr(%rip), %r9d
	imull	4532+arr(%rip), %r9d
	imull	4536+arr(%rip), %r9d
	imull	4540+arr(%rip), %r9d
	imull	4544+arr(%rip), %r9d
	imull	4548+arr(%rip), %r9d
	imull	4552+arr(%rip), %r9d
	imull	4556+arr(%rip), %r9d
	imull	4560+arr(%rip), %r9d
	imull	4564+arr(%rip), %r9d
	imull	4568+arr(%rip), %r9d
	imull	4572+arr(%rip), %r9d
	imull	4576+arr(%rip), %r9d
	imull	4580+arr(%rip), %r9d
	imull	4584+arr(%rip), %r9d
	imull	4588+arr(%rip), %r9d
	imull	4592+arr(%rip), %r9d
	imull	5300+arr(%rip), %r8d
	imull	5304+arr(%rip), %r8d
	imull	5308+arr(%rip), %r8d
	imull	5312+arr(%rip), %r8d
	imull	5316+arr(%rip), %r8d
	imull	5320+arr(%rip), %r8d
	imull	5324+arr(%rip), %r8d
	imull	5328+arr(%rip), %r8d
	imull	5332+arr(%rip), %r8d
	imull	5336+arr(%rip), %r8d
	imull	5340+arr(%rip), %r8d
	imull	5344+arr(%rip), %r8d
	imull	5348+arr(%rip), %r8d
	imull	5352+arr(%rip), %r8d
	imull	5356+arr(%rip), %r8d
	imull	5360+arr(%rip), %r8d
	imull	5364+arr(%rip), %r8d
	imull	5368+arr(%rip), %r8d
	imull	5372+arr(%rip), %r8d
	imull	5376+arr(%rip), %r8d
	imull	5380+arr(%rip), %r8d
	imull	5384+arr(%rip), %r8d
	imull	5388+arr(%rip), %r8d
	imull	5392+arr(%rip), %r8d
	imull	6100+arr(%rip), %ecx
	imull	6104+arr(%rip), %ecx
	imull	6108+arr(%rip), %ecx
	imull	6112+arr(%rip), %ecx
	imull	6116+arr(%rip), %ecx
	imull	6120+arr(%rip), %ecx
	imull	6124+arr(%rip), %ecx
	imull	6128+arr(%rip), %ecx
	imull	6132+arr(%rip), %ecx
	imull	6136+arr(%rip), %ecx
	imull	6140+arr(%rip), %ecx
	imull	6144+arr(%rip), %ecx
	imull	6148+arr(%rip), %ecx
	imull	6152+arr(%rip), %ecx
	imull	6156+arr(%rip), %ecx
	imull	6160+arr(%rip), %ecx
	imull	6164+arr(%rip), %ecx
	imull	6168+arr(%rip), %ecx
	imull	6172+arr(%rip), %ecx
	imull	6176+arr(%rip), %ecx
	imull	6180+arr(%rip), %ecx
	imull	6184+arr(%rip), %ecx
	imull	6188+arr(%rip), %ecx
	imull	6192+arr(%rip), %ecx
	imull	6900+arr(%rip), %edx
	imull	6904+arr(%rip), %edx
	imull	6908+arr(%rip), %edx
	imull	6912+arr(%rip), %edx
	imull	6916+arr(%rip), %edx
	imull	6920+arr(%rip), %edx
	imull	6924+arr(%rip), %edx
	imull	6928+arr(%rip), %edx
	imull	6932+arr(%rip), %edx
	imull	6936+arr(%rip), %edx
	imull	6940+arr(%rip), %edx
	imull	6944+arr(%rip), %edx
	imull	6948+arr(%rip), %edx
	imull	6952+arr(%rip), %edx
	imull	6956+arr(%rip), %edx
	imull	6960+arr(%rip), %edx
	imull	6964+arr(%rip), %edx
	imull	6968+arr(%rip), %edx
	imull	6972+arr(%rip), %edx
	imull	6976+arr(%rip), %edx
	imull	6980+arr(%rip), %edx
	imull	6984+arr(%rip), %edx
	imull	6988+arr(%rip), %edx
	imull	6992+arr(%rip), %edx
	imull	7700+arr(%rip), %eax
	imull	7704+arr(%rip), %eax
	imull	7708+arr(%rip), %eax
	imull	7712+arr(%rip), %eax
	imull	7716+arr(%rip), %eax
	imull	7720+arr(%rip), %eax
	imull	7724+arr(%rip), %eax
	imull	7728+arr(%rip), %eax
	imull	7732+arr(%rip), %eax
	imull	7736+arr(%rip), %eax
	imull	7740+arr(%rip), %eax
	imull	7744+arr(%rip), %eax
	imull	7748+arr(%rip), %eax
	imull	7752+arr(%rip), %eax
	imull	7756+arr(%rip), %eax
	imull	7760+arr(%rip), %eax
	imull	7764+arr(%rip), %eax
	imull	7768+arr(%rip), %eax
	imull	7772+arr(%rip), %eax
	imull	7776+arr(%rip), %eax
	imull	7780+arr(%rip), %eax
	imull	7784+arr(%rip), %eax
	imull	7788+arr(%rip), %eax
	imull	7792+arr(%rip), %eax
	imull	500+arr(%rip), %r12d
	imull	504+arr(%rip), %r12d
	imull	508+arr(%rip), %r12d
	imull	512+arr(%rip), %r12d
	imull	516+arr(%rip), %r12d
	imull	520+arr(%rip), %r12d
	imull	524+arr(%rip), %r12d
	imull	528+arr(%rip), %r12d
	imull	532+arr(%rip), %r12d
	imull	536+arr(%rip), %r12d
	imull	540+arr(%rip), %r12d
	imull	544+arr(%rip), %r12d
	imull	548+arr(%rip), %r12d
	imull	552+arr(%rip), %r12d
	imull	556+arr(%rip), %r12d
	imull	560+arr(%rip), %r12d
	imull	564+arr(%rip), %r12d
	imull	568+arr(%rip), %r12d
	imull	572+arr(%rip), %r12d
	imull	576+arr(%rip), %r12d
	imull	580+arr(%rip), %r12d
	imull	584+arr(%rip), %r12d
	imull	588+arr(%rip), %r12d
	imull	592+arr(%rip), %r12d
	imull	596+arr(%rip), %r12d
	imull	1396+arr(%rip), %ebp
	imull	2196+arr(%rip), %edi
	imull	2996+arr(%rip), %r11d
	imull	3796+arr(%rip), %r10d
	imull	4596+arr(%rip), %r9d
	imull	5396+arr(%rip), %r8d
	imull	6196+arr(%rip), %ecx
	imull	6996+arr(%rip), %edx
	imull	7796+arr(%rip), %eax
	imull	1400+arr(%rip), %ebp
	imull	1404+arr(%rip), %ebp
	imull	1408+arr(%rip), %ebp
	imull	1412+arr(%rip), %ebp
	imull	1416+arr(%rip), %ebp
	imull	1420+arr(%rip), %ebp
	imull	1424+arr(%rip), %ebp
	imull	1428+arr(%rip), %ebp
	imull	1432+arr(%rip), %ebp
	imull	1436+arr(%rip), %ebp
	imull	1440+arr(%rip), %ebp
	imull	1444+arr(%rip), %ebp
	imull	1448+arr(%rip), %ebp
	imull	1452+arr(%rip), %ebp
	imull	1456+arr(%rip), %ebp
	imull	1460+arr(%rip), %ebp
	imull	1464+arr(%rip), %ebp
	imull	1468+arr(%rip), %ebp
	imull	1472+arr(%rip), %ebp
	imull	1476+arr(%rip), %ebp
	imull	1480+arr(%rip), %ebp
	imull	1484+arr(%rip), %ebp
	imull	1488+arr(%rip), %ebp
	imull	1492+arr(%rip), %ebp
	imull	2200+arr(%rip), %edi
	imull	2204+arr(%rip), %edi
	imull	2208+arr(%rip), %edi
	imull	2212+arr(%rip), %edi
	imull	2216+arr(%rip), %edi
	imull	2220+arr(%rip), %edi
	imull	2224+arr(%rip), %edi
	imull	2228+arr(%rip), %edi
	imull	2232+arr(%rip), %edi
	imull	2236+arr(%rip), %edi
	imull	2240+arr(%rip), %edi
	imull	2244+arr(%rip), %edi
	imull	2248+arr(%rip), %edi
	imull	2252+arr(%rip), %edi
	imull	2256+arr(%rip), %edi
	imull	2260+arr(%rip), %edi
	imull	2264+arr(%rip), %edi
	imull	2268+arr(%rip), %edi
	imull	2272+arr(%rip), %edi
	imull	2276+arr(%rip), %edi
	imull	2280+arr(%rip), %edi
	imull	2284+arr(%rip), %edi
	imull	2288+arr(%rip), %edi
	imull	2292+arr(%rip), %edi
	imull	3000+arr(%rip), %r11d
	imull	3004+arr(%rip), %r11d
	imull	3008+arr(%rip), %r11d
	imull	3012+arr(%rip), %r11d
	imull	3016+arr(%rip), %r11d
	imull	3020+arr(%rip), %r11d
	imull	3024+arr(%rip), %r11d
	imull	3028+arr(%rip), %r11d
	imull	3032+arr(%rip), %r11d
	imull	3036+arr(%rip), %r11d
	imull	3040+arr(%rip), %r11d
	imull	3044+arr(%rip), %r11d
	imull	3048+arr(%rip), %r11d
	imull	3052+arr(%rip), %r11d
	imull	3056+arr(%rip), %r11d
	imull	3060+arr(%rip), %r11d
	imull	3064+arr(%rip), %r11d
	imull	3068+arr(%rip), %r11d
	imull	3072+arr(%rip), %r11d
	imull	3076+arr(%rip), %r11d
	imull	3080+arr(%rip), %r11d
	imull	3084+arr(%rip), %r11d
	imull	3088+arr(%rip), %r11d
	imull	3092+arr(%rip), %r11d
	imull	3800+arr(%rip), %r10d
	imull	3804+arr(%rip), %r10d
	imull	3808+arr(%rip), %r10d
	imull	3812+arr(%rip), %r10d
	imull	3816+arr(%rip), %r10d
	imull	3820+arr(%rip), %r10d
	imull	3824+arr(%rip), %r10d
	imull	3828+arr(%rip), %r10d
	imull	3832+arr(%rip), %r10d
	imull	3836+arr(%rip), %r10d
	imull	3840+arr(%rip), %r10d
	imull	3844+arr(%rip), %r10d
	imull	3848+arr(%rip), %r10d
	imull	3852+arr(%rip), %r10d
	imull	3856+arr(%rip), %r10d
	imull	3860+arr(%rip), %r10d
	imull	3864+arr(%rip), %r10d
	imull	3868+arr(%rip), %r10d
	imull	3872+arr(%rip), %r10d
	imull	3876+arr(%rip), %r10d
	imull	3880+arr(%rip), %r10d
	imull	3884+arr(%rip), %r10d
	imull	3888+arr(%rip), %r10d
	imull	3892+arr(%rip), %r10d
	imull	4600+arr(%rip), %r9d
	imull	4604+arr(%rip), %r9d
	imull	4608+arr(%rip), %r9d
	imull	4612+arr(%rip), %r9d
	imull	4616+arr(%rip), %r9d
	imull	4620+arr(%rip), %r9d
	imull	4624+arr(%rip), %r9d
	imull	4628+arr(%rip), %r9d
	imull	4632+arr(%rip), %r9d
	imull	4636+arr(%rip), %r9d
	imull	4640+arr(%rip), %r9d
	imull	4644+arr(%rip), %r9d
	imull	4648+arr(%rip), %r9d
	imull	4652+arr(%rip), %r9d
	imull	4656+arr(%rip), %r9d
	imull	4660+arr(%rip), %r9d
	imull	4664+arr(%rip), %r9d
	imull	4668+arr(%rip), %r9d
	imull	4672+arr(%rip), %r9d
	imull	4676+arr(%rip), %r9d
	imull	4680+arr(%rip), %r9d
	imull	4684+arr(%rip), %r9d
	imull	4688+arr(%rip), %r9d
	imull	4692+arr(%rip), %r9d
	imull	5400+arr(%rip), %r8d
	imull	5404+arr(%rip), %r8d
	imull	5408+arr(%rip), %r8d
	imull	5412+arr(%rip), %r8d
	imull	5416+arr(%rip), %r8d
	imull	5420+arr(%rip), %r8d
	imull	5424+arr(%rip), %r8d
	imull	5428+arr(%rip), %r8d
	imull	5432+arr(%rip), %r8d
	imull	5436+arr(%rip), %r8d
	imull	5440+arr(%rip), %r8d
	imull	5444+arr(%rip), %r8d
	imull	5448+arr(%rip), %r8d
	imull	5452+arr(%rip), %r8d
	imull	5456+arr(%rip), %r8d
	imull	5460+arr(%rip), %r8d
	imull	5464+arr(%rip), %r8d
	imull	5468+arr(%rip), %r8d
	imull	5472+arr(%rip), %r8d
	imull	5476+arr(%rip), %r8d
	imull	5480+arr(%rip), %r8d
	imull	5484+arr(%rip), %r8d
	imull	5488+arr(%rip), %r8d
	imull	5492+arr(%rip), %r8d
	imull	6200+arr(%rip), %ecx
	imull	6204+arr(%rip), %ecx
	imull	6208+arr(%rip), %ecx
	imull	6212+arr(%rip), %ecx
	imull	6216+arr(%rip), %ecx
	imull	6220+arr(%rip), %ecx
	imull	6224+arr(%rip), %ecx
	imull	6228+arr(%rip), %ecx
	imull	6232+arr(%rip), %ecx
	imull	6236+arr(%rip), %ecx
	imull	6240+arr(%rip), %ecx
	imull	6244+arr(%rip), %ecx
	imull	6248+arr(%rip), %ecx
	imull	6252+arr(%rip), %ecx
	imull	6256+arr(%rip), %ecx
	imull	6260+arr(%rip), %ecx
	imull	6264+arr(%rip), %ecx
	imull	6268+arr(%rip), %ecx
	imull	6272+arr(%rip), %ecx
	imull	6276+arr(%rip), %ecx
	imull	6280+arr(%rip), %ecx
	imull	6284+arr(%rip), %ecx
	imull	6288+arr(%rip), %ecx
	imull	6292+arr(%rip), %ecx
	imull	7000+arr(%rip), %edx
	imull	7004+arr(%rip), %edx
	imull	7008+arr(%rip), %edx
	imull	7012+arr(%rip), %edx
	imull	7016+arr(%rip), %edx
	imull	7020+arr(%rip), %edx
	imull	7024+arr(%rip), %edx
	imull	7028+arr(%rip), %edx
	imull	7032+arr(%rip), %edx
	imull	7036+arr(%rip), %edx
	imull	7040+arr(%rip), %edx
	imull	7044+arr(%rip), %edx
	imull	7048+arr(%rip), %edx
	imull	7052+arr(%rip), %edx
	imull	7056+arr(%rip), %edx
	imull	7060+arr(%rip), %edx
	imull	7064+arr(%rip), %edx
	imull	7068+arr(%rip), %edx
	imull	7072+arr(%rip), %edx
	imull	7076+arr(%rip), %edx
	imull	7080+arr(%rip), %edx
	imull	7084+arr(%rip), %edx
	imull	7088+arr(%rip), %edx
	imull	7092+arr(%rip), %edx
	imull	7800+arr(%rip), %eax
	imull	7804+arr(%rip), %eax
	imull	7808+arr(%rip), %eax
	imull	7812+arr(%rip), %eax
	imull	7816+arr(%rip), %eax
	imull	7820+arr(%rip), %eax
	imull	7824+arr(%rip), %eax
	imull	7828+arr(%rip), %eax
	imull	7832+arr(%rip), %eax
	imull	7836+arr(%rip), %eax
	imull	7840+arr(%rip), %eax
	imull	7844+arr(%rip), %eax
	imull	7848+arr(%rip), %eax
	imull	7852+arr(%rip), %eax
	imull	7856+arr(%rip), %eax
	imull	7860+arr(%rip), %eax
	imull	7864+arr(%rip), %eax
	imull	7868+arr(%rip), %eax
	imull	7872+arr(%rip), %eax
	imull	7876+arr(%rip), %eax
	imull	7880+arr(%rip), %eax
	imull	7884+arr(%rip), %eax
	imull	7888+arr(%rip), %eax
	imull	7892+arr(%rip), %eax
	imull	600+arr(%rip), %r12d
	imull	604+arr(%rip), %r12d
	imull	608+arr(%rip), %r12d
	imull	612+arr(%rip), %r12d
	imull	616+arr(%rip), %r12d
	imull	620+arr(%rip), %r12d
	imull	624+arr(%rip), %r12d
	imull	628+arr(%rip), %r12d
	imull	632+arr(%rip), %r12d
	imull	636+arr(%rip), %r12d
	imull	640+arr(%rip), %r12d
	imull	644+arr(%rip), %r12d
	imull	648+arr(%rip), %r12d
	imull	652+arr(%rip), %r12d
	imull	656+arr(%rip), %r12d
	imull	660+arr(%rip), %r12d
	imull	664+arr(%rip), %r12d
	imull	668+arr(%rip), %r12d
	imull	672+arr(%rip), %r12d
	imull	676+arr(%rip), %r12d
	imull	680+arr(%rip), %r12d
	imull	684+arr(%rip), %r12d
	imull	688+arr(%rip), %r12d
	imull	692+arr(%rip), %r12d
	imull	696+arr(%rip), %r12d
	imull	1496+arr(%rip), %ebp
	imull	2296+arr(%rip), %edi
	imull	3096+arr(%rip), %r11d
	imull	3896+arr(%rip), %r10d
	imull	4696+arr(%rip), %r9d
	imull	5496+arr(%rip), %r8d
	imull	6296+arr(%rip), %ecx
	imull	7096+arr(%rip), %edx
	imull	7896+arr(%rip), %eax
	imull	1500+arr(%rip), %ebp
	imull	1504+arr(%rip), %ebp
	imull	1508+arr(%rip), %ebp
	imull	1512+arr(%rip), %ebp
	imull	1516+arr(%rip), %ebp
	imull	1520+arr(%rip), %ebp
	imull	1524+arr(%rip), %ebp
	imull	1528+arr(%rip), %ebp
	imull	1532+arr(%rip), %ebp
	imull	1536+arr(%rip), %ebp
	imull	1540+arr(%rip), %ebp
	imull	1544+arr(%rip), %ebp
	imull	1548+arr(%rip), %ebp
	imull	1552+arr(%rip), %ebp
	imull	1556+arr(%rip), %ebp
	imull	1560+arr(%rip), %ebp
	imull	1564+arr(%rip), %ebp
	imull	1568+arr(%rip), %ebp
	imull	1572+arr(%rip), %ebp
	imull	1576+arr(%rip), %ebp
	imull	1580+arr(%rip), %ebp
	imull	1584+arr(%rip), %ebp
	imull	1588+arr(%rip), %ebp
	imull	1592+arr(%rip), %ebp
	imull	2300+arr(%rip), %edi
	imull	2304+arr(%rip), %edi
	imull	2308+arr(%rip), %edi
	imull	2312+arr(%rip), %edi
	imull	2316+arr(%rip), %edi
	imull	2320+arr(%rip), %edi
	imull	2324+arr(%rip), %edi
	imull	2328+arr(%rip), %edi
	imull	2332+arr(%rip), %edi
	imull	2336+arr(%rip), %edi
	imull	2340+arr(%rip), %edi
	imull	2344+arr(%rip), %edi
	imull	2348+arr(%rip), %edi
	imull	2352+arr(%rip), %edi
	imull	2356+arr(%rip), %edi
	imull	2360+arr(%rip), %edi
	imull	2364+arr(%rip), %edi
	imull	2368+arr(%rip), %edi
	imull	2372+arr(%rip), %edi
	imull	2376+arr(%rip), %edi
	imull	2380+arr(%rip), %edi
	imull	2384+arr(%rip), %edi
	imull	2388+arr(%rip), %edi
	imull	2392+arr(%rip), %edi
	imull	3100+arr(%rip), %r11d
	imull	3104+arr(%rip), %r11d
	imull	3108+arr(%rip), %r11d
	imull	3112+arr(%rip), %r11d
	imull	3116+arr(%rip), %r11d
	imull	3120+arr(%rip), %r11d
	imull	3124+arr(%rip), %r11d
	imull	3128+arr(%rip), %r11d
	imull	3132+arr(%rip), %r11d
	imull	3136+arr(%rip), %r11d
	imull	3140+arr(%rip), %r11d
	imull	3144+arr(%rip), %r11d
	imull	3148+arr(%rip), %r11d
	imull	3152+arr(%rip), %r11d
	imull	3156+arr(%rip), %r11d
	imull	3160+arr(%rip), %r11d
	imull	3164+arr(%rip), %r11d
	imull	3168+arr(%rip), %r11d
	imull	3172+arr(%rip), %r11d
	imull	3176+arr(%rip), %r11d
	imull	3180+arr(%rip), %r11d
	imull	3184+arr(%rip), %r11d
	imull	3188+arr(%rip), %r11d
	imull	3192+arr(%rip), %r11d
	imull	3900+arr(%rip), %r10d
	imull	3904+arr(%rip), %r10d
	imull	3908+arr(%rip), %r10d
	imull	3912+arr(%rip), %r10d
	imull	3916+arr(%rip), %r10d
	imull	3920+arr(%rip), %r10d
	imull	3924+arr(%rip), %r10d
	imull	3928+arr(%rip), %r10d
	imull	3932+arr(%rip), %r10d
	imull	3936+arr(%rip), %r10d
	imull	3940+arr(%rip), %r10d
	imull	3944+arr(%rip), %r10d
	imull	3948+arr(%rip), %r10d
	imull	3952+arr(%rip), %r10d
	imull	3956+arr(%rip), %r10d
	imull	3960+arr(%rip), %r10d
	imull	3964+arr(%rip), %r10d
	imull	3968+arr(%rip), %r10d
	imull	3972+arr(%rip), %r10d
	imull	3976+arr(%rip), %r10d
	imull	3980+arr(%rip), %r10d
	imull	3984+arr(%rip), %r10d
	imull	3988+arr(%rip), %r10d
	imull	3992+arr(%rip), %r10d
	imull	4700+arr(%rip), %r9d
	imull	4704+arr(%rip), %r9d
	imull	4708+arr(%rip), %r9d
	imull	4712+arr(%rip), %r9d
	imull	4716+arr(%rip), %r9d
	imull	4720+arr(%rip), %r9d
	imull	4724+arr(%rip), %r9d
	imull	4728+arr(%rip), %r9d
	imull	4732+arr(%rip), %r9d
	imull	4736+arr(%rip), %r9d
	imull	4740+arr(%rip), %r9d
	imull	4744+arr(%rip), %r9d
	imull	4748+arr(%rip), %r9d
	imull	4752+arr(%rip), %r9d
	imull	4756+arr(%rip), %r9d
	imull	4760+arr(%rip), %r9d
	imull	4764+arr(%rip), %r9d
	imull	4768+arr(%rip), %r9d
	imull	4772+arr(%rip), %r9d
	imull	4776+arr(%rip), %r9d
	imull	4780+arr(%rip), %r9d
	imull	4784+arr(%rip), %r9d
	imull	4788+arr(%rip), %r9d
	imull	4792+arr(%rip), %r9d
	imull	5500+arr(%rip), %r8d
	imull	5504+arr(%rip), %r8d
	imull	5508+arr(%rip), %r8d
	imull	5512+arr(%rip), %r8d
	imull	5516+arr(%rip), %r8d
	imull	5520+arr(%rip), %r8d
	imull	5524+arr(%rip), %r8d
	imull	5528+arr(%rip), %r8d
	imull	5532+arr(%rip), %r8d
	imull	5536+arr(%rip), %r8d
	imull	5540+arr(%rip), %r8d
	imull	5544+arr(%rip), %r8d
	imull	5548+arr(%rip), %r8d
	imull	5552+arr(%rip), %r8d
	imull	5556+arr(%rip), %r8d
	imull	5560+arr(%rip), %r8d
	imull	5564+arr(%rip), %r8d
	imull	5568+arr(%rip), %r8d
	imull	5572+arr(%rip), %r8d
	imull	5576+arr(%rip), %r8d
	imull	5580+arr(%rip), %r8d
	imull	5584+arr(%rip), %r8d
	imull	5588+arr(%rip), %r8d
	imull	5592+arr(%rip), %r8d
	imull	6300+arr(%rip), %ecx
	imull	6304+arr(%rip), %ecx
	imull	6308+arr(%rip), %ecx
	imull	6312+arr(%rip), %ecx
	imull	6316+arr(%rip), %ecx
	imull	6320+arr(%rip), %ecx
	imull	6324+arr(%rip), %ecx
	imull	6328+arr(%rip), %ecx
	imull	6332+arr(%rip), %ecx
	imull	6336+arr(%rip), %ecx
	imull	6340+arr(%rip), %ecx
	imull	6344+arr(%rip), %ecx
	imull	6348+arr(%rip), %ecx
	imull	6352+arr(%rip), %ecx
	imull	6356+arr(%rip), %ecx
	imull	6360+arr(%rip), %ecx
	imull	6364+arr(%rip), %ecx
	imull	6368+arr(%rip), %ecx
	imull	6372+arr(%rip), %ecx
	imull	6376+arr(%rip), %ecx
	imull	6380+arr(%rip), %ecx
	imull	6384+arr(%rip), %ecx
	imull	6388+arr(%rip), %ecx
	imull	6392+arr(%rip), %ecx
	imull	7100+arr(%rip), %edx
	imull	7104+arr(%rip), %edx
	imull	7108+arr(%rip), %edx
	imull	7112+arr(%rip), %edx
	imull	7116+arr(%rip), %edx
	imull	7120+arr(%rip), %edx
	imull	7124+arr(%rip), %edx
	imull	7128+arr(%rip), %edx
	imull	7132+arr(%rip), %edx
	imull	7136+arr(%rip), %edx
	imull	7140+arr(%rip), %edx
	imull	7144+arr(%rip), %edx
	imull	7148+arr(%rip), %edx
	imull	7152+arr(%rip), %edx
	imull	7156+arr(%rip), %edx
	imull	7160+arr(%rip), %edx
	imull	7164+arr(%rip), %edx
	imull	7168+arr(%rip), %edx
	imull	7172+arr(%rip), %edx
	imull	7176+arr(%rip), %edx
	imull	7180+arr(%rip), %edx
	imull	7184+arr(%rip), %edx
	imull	7188+arr(%rip), %edx
	imull	7192+arr(%rip), %edx
	imull	7900+arr(%rip), %eax
	imull	7904+arr(%rip), %eax
	imull	7908+arr(%rip), %eax
	imull	7912+arr(%rip), %eax
	imull	7916+arr(%rip), %eax
	imull	7920+arr(%rip), %eax
	imull	7924+arr(%rip), %eax
	imull	7928+arr(%rip), %eax
	imull	7932+arr(%rip), %eax
	imull	7936+arr(%rip), %eax
	imull	7940+arr(%rip), %eax
	imull	7944+arr(%rip), %eax
	imull	7948+arr(%rip), %eax
	imull	7952+arr(%rip), %eax
	imull	7956+arr(%rip), %eax
	imull	7960+arr(%rip), %eax
	imull	7964+arr(%rip), %eax
	imull	7968+arr(%rip), %eax
	imull	7972+arr(%rip), %eax
	imull	7976+arr(%rip), %eax
	imull	7980+arr(%rip), %eax
	imull	7984+arr(%rip), %eax
	imull	7988+arr(%rip), %eax
	imull	7992+arr(%rip), %eax
	imull	700+arr(%rip), %r12d
	imull	704+arr(%rip), %r12d
	imull	708+arr(%rip), %r12d
	imull	712+arr(%rip), %r12d
	imull	716+arr(%rip), %r12d
	imull	720+arr(%rip), %r12d
	imull	724+arr(%rip), %r12d
	imull	728+arr(%rip), %r12d
	imull	732+arr(%rip), %r12d
	imull	736+arr(%rip), %r12d
	imull	740+arr(%rip), %r12d
	imull	744+arr(%rip), %r12d
	imull	748+arr(%rip), %r12d
	imull	752+arr(%rip), %r12d
	imull	756+arr(%rip), %r12d
	imull	760+arr(%rip), %r12d
	imull	764+arr(%rip), %r12d
	imull	768+arr(%rip), %r12d
	imull	772+arr(%rip), %r12d
	imull	776+arr(%rip), %r12d
	imull	780+arr(%rip), %r12d
	imull	784+arr(%rip), %r12d
	imull	788+arr(%rip), %r12d
	imull	792+arr(%rip), %r12d
	imull	796+arr(%rip), %r12d
	imull	1596+arr(%rip), %ebp
	imull	2396+arr(%rip), %edi
	imull	3196+arr(%rip), %r11d
	imull	3996+arr(%rip), %r10d
	imull	4796+arr(%rip), %r9d
	imull	5596+arr(%rip), %r8d
	imull	6396+arr(%rip), %ecx
	imull	7196+arr(%rip), %edx
	imull	7996+arr(%rip), %eax
	imull	800+arr(%rip), %ebp
	imull	804+arr(%rip), %ebp
	imull	808+arr(%rip), %ebp
	imull	812+arr(%rip), %ebp
	imull	816+arr(%rip), %ebp
	imull	820+arr(%rip), %ebp
	imull	824+arr(%rip), %ebp
	imull	828+arr(%rip), %ebp
	imull	832+arr(%rip), %ebp
	imull	836+arr(%rip), %ebp
	imull	840+arr(%rip), %ebp
	imull	844+arr(%rip), %ebp
	imull	848+arr(%rip), %ebp
	imull	852+arr(%rip), %ebp
	imull	856+arr(%rip), %ebp
	imull	860+arr(%rip), %ebp
	imull	864+arr(%rip), %ebp
	imull	868+arr(%rip), %ebp
	imull	872+arr(%rip), %ebp
	imull	876+arr(%rip), %ebp
	imull	880+arr(%rip), %ebp
	imull	884+arr(%rip), %ebp
	imull	888+arr(%rip), %ebp
	imull	892+arr(%rip), %ebp
	imull	1600+arr(%rip), %edi
	imull	1604+arr(%rip), %edi
	imull	1608+arr(%rip), %edi
	imull	1612+arr(%rip), %edi
	imull	1616+arr(%rip), %edi
	imull	1620+arr(%rip), %edi
	imull	1624+arr(%rip), %edi
	imull	1628+arr(%rip), %edi
	imull	1632+arr(%rip), %edi
	imull	1636+arr(%rip), %edi
	imull	1640+arr(%rip), %edi
	imull	1644+arr(%rip), %edi
	imull	1648+arr(%rip), %edi
	imull	1652+arr(%rip), %edi
	imull	1656+arr(%rip), %edi
	imull	1660+arr(%rip), %edi
	imull	1664+arr(%rip), %edi
	imull	1668+arr(%rip), %edi
	imull	1672+arr(%rip), %edi
	imull	1676+arr(%rip), %edi
	imull	1680+arr(%rip), %edi
	imull	1684+arr(%rip), %edi
	imull	1688+arr(%rip), %edi
	imull	1692+arr(%rip), %edi
	imull	2400+arr(%rip), %r11d
	imull	2404+arr(%rip), %r11d
	imull	2408+arr(%rip), %r11d
	imull	2412+arr(%rip), %r11d
	imull	2416+arr(%rip), %r11d
	imull	2420+arr(%rip), %r11d
	imull	2424+arr(%rip), %r11d
	imull	2428+arr(%rip), %r11d
	imull	2432+arr(%rip), %r11d
	imull	2436+arr(%rip), %r11d
	imull	2440+arr(%rip), %r11d
	imull	2444+arr(%rip), %r11d
	imull	2448+arr(%rip), %r11d
	imull	2452+arr(%rip), %r11d
	imull	2456+arr(%rip), %r11d
	imull	2460+arr(%rip), %r11d
	imull	2464+arr(%rip), %r11d
	imull	2468+arr(%rip), %r11d
	imull	2472+arr(%rip), %r11d
	imull	2476+arr(%rip), %r11d
	imull	2480+arr(%rip), %r11d
	imull	2484+arr(%rip), %r11d
	imull	2488+arr(%rip), %r11d
	imull	2492+arr(%rip), %r11d
	imull	3200+arr(%rip), %r10d
	imull	3204+arr(%rip), %r10d
	imull	3208+arr(%rip), %r10d
	imull	3212+arr(%rip), %r10d
	imull	3216+arr(%rip), %r10d
	imull	3220+arr(%rip), %r10d
	imull	3224+arr(%rip), %r10d
	imull	3228+arr(%rip), %r10d
	imull	3232+arr(%rip), %r10d
	imull	3236+arr(%rip), %r10d
	imull	3240+arr(%rip), %r10d
	imull	3244+arr(%rip), %r10d
	imull	3248+arr(%rip), %r10d
	imull	3252+arr(%rip), %r10d
	imull	3256+arr(%rip), %r10d
	imull	3260+arr(%rip), %r10d
	imull	3264+arr(%rip), %r10d
	imull	3268+arr(%rip), %r10d
	imull	3272+arr(%rip), %r10d
	imull	3276+arr(%rip), %r10d
	imull	3280+arr(%rip), %r10d
	imull	3284+arr(%rip), %r10d
	imull	3288+arr(%rip), %r10d
	imull	3292+arr(%rip), %r10d
	imull	4000+arr(%rip), %r9d
	imull	4004+arr(%rip), %r9d
	imull	4008+arr(%rip), %r9d
	imull	4012+arr(%rip), %r9d
	imull	4016+arr(%rip), %r9d
	imull	4020+arr(%rip), %r9d
	imull	4024+arr(%rip), %r9d
	imull	4028+arr(%rip), %r9d
	imull	4032+arr(%rip), %r9d
	imull	4036+arr(%rip), %r9d
	imull	4040+arr(%rip), %r9d
	imull	4044+arr(%rip), %r9d
	imull	4048+arr(%rip), %r9d
	imull	4052+arr(%rip), %r9d
	imull	4056+arr(%rip), %r9d
	imull	4060+arr(%rip), %r9d
	imull	4064+arr(%rip), %r9d
	imull	4068+arr(%rip), %r9d
	imull	4072+arr(%rip), %r9d
	imull	4076+arr(%rip), %r9d
	imull	4080+arr(%rip), %r9d
	imull	4084+arr(%rip), %r9d
	imull	4088+arr(%rip), %r9d
	imull	4092+arr(%rip), %r9d
	imull	4800+arr(%rip), %r8d
	imull	4804+arr(%rip), %r8d
	imull	4808+arr(%rip), %r8d
	imull	4812+arr(%rip), %r8d
	imull	4816+arr(%rip), %r8d
	imull	4820+arr(%rip), %r8d
	imull	4824+arr(%rip), %r8d
	imull	4828+arr(%rip), %r8d
	imull	4832+arr(%rip), %r8d
	imull	4836+arr(%rip), %r8d
	imull	4840+arr(%rip), %r8d
	imull	4844+arr(%rip), %r8d
	imull	4848+arr(%rip), %r8d
	imull	4852+arr(%rip), %r8d
	imull	4856+arr(%rip), %r8d
	imull	4860+arr(%rip), %r8d
	imull	4864+arr(%rip), %r8d
	imull	4868+arr(%rip), %r8d
	imull	4872+arr(%rip), %r8d
	imull	4876+arr(%rip), %r8d
	imull	4880+arr(%rip), %r8d
	imull	4884+arr(%rip), %r8d
	imull	4888+arr(%rip), %r8d
	imull	4892+arr(%rip), %r8d
	imull	5600+arr(%rip), %ecx
	imull	5604+arr(%rip), %ecx
	imull	5608+arr(%rip), %ecx
	imull	5612+arr(%rip), %ecx
	imull	5616+arr(%rip), %ecx
	imull	5620+arr(%rip), %ecx
	imull	5624+arr(%rip), %ecx
	imull	5628+arr(%rip), %ecx
	imull	5632+arr(%rip), %ecx
	imull	5636+arr(%rip), %ecx
	imull	5640+arr(%rip), %ecx
	imull	5644+arr(%rip), %ecx
	imull	5648+arr(%rip), %ecx
	imull	5652+arr(%rip), %ecx
	imull	5656+arr(%rip), %ecx
	imull	5660+arr(%rip), %ecx
	imull	5664+arr(%rip), %ecx
	imull	5668+arr(%rip), %ecx
	imull	5672+arr(%rip), %ecx
	imull	5676+arr(%rip), %ecx
	imull	5680+arr(%rip), %ecx
	imull	5684+arr(%rip), %ecx
	imull	5688+arr(%rip), %ecx
	imull	5692+arr(%rip), %ecx
	imull	6400+arr(%rip), %edx
	imull	6404+arr(%rip), %edx
	imull	6408+arr(%rip), %edx
	imull	6412+arr(%rip), %edx
	imull	6416+arr(%rip), %edx
	imull	6420+arr(%rip), %edx
	imull	6424+arr(%rip), %edx
	imull	6428+arr(%rip), %edx
	imull	6432+arr(%rip), %edx
	imull	6436+arr(%rip), %edx
	imull	6440+arr(%rip), %edx
	imull	6444+arr(%rip), %edx
	imull	6448+arr(%rip), %edx
	imull	6452+arr(%rip), %edx
	imull	6456+arr(%rip), %edx
	imull	6460+arr(%rip), %edx
	imull	6464+arr(%rip), %edx
	imull	6468+arr(%rip), %edx
	imull	6472+arr(%rip), %edx
	imull	6476+arr(%rip), %edx
	imull	6480+arr(%rip), %edx
	imull	6484+arr(%rip), %edx
	imull	6488+arr(%rip), %edx
	imull	6492+arr(%rip), %edx
	imull	7200+arr(%rip), %eax
	imull	7204+arr(%rip), %eax
	imull	7208+arr(%rip), %eax
	imull	7212+arr(%rip), %eax
	imull	7216+arr(%rip), %eax
	imull	7220+arr(%rip), %eax
	imull	7224+arr(%rip), %eax
	imull	7228+arr(%rip), %eax
	imull	7232+arr(%rip), %eax
	imull	7236+arr(%rip), %eax
	imull	7240+arr(%rip), %eax
	imull	7244+arr(%rip), %eax
	imull	7248+arr(%rip), %eax
	imull	7252+arr(%rip), %eax
	imull	7256+arr(%rip), %eax
	imull	7260+arr(%rip), %eax
	imull	7264+arr(%rip), %eax
	imull	7268+arr(%rip), %eax
	imull	7272+arr(%rip), %eax
	imull	7276+arr(%rip), %eax
	imull	7280+arr(%rip), %eax
	imull	7284+arr(%rip), %eax
	imull	7288+arr(%rip), %eax
	imull	7292+arr(%rip), %eax
	imull	arr(%rip), %r12d
	imull	4+arr(%rip), %r12d
	imull	8+arr(%rip), %r12d
	imull	12+arr(%rip), %r12d
	imull	16+arr(%rip), %r12d
	imull	20+arr(%rip), %r12d
	imull	24+arr(%rip), %r12d
	imull	28+arr(%rip), %r12d
	imull	32+arr(%rip), %r12d
	imull	36+arr(%rip), %r12d
	imull	40+arr(%rip), %r12d
	imull	44+arr(%rip), %r12d
	imull	48+arr(%rip), %r12d
	imull	52+arr(%rip), %r12d
	imull	56+arr(%rip), %r12d
	imull	60+arr(%rip), %r12d
	imull	64+arr(%rip), %r12d
	imull	68+arr(%rip), %r12d
	imull	72+arr(%rip), %r12d
	imull	76+arr(%rip), %r12d
	imull	80+arr(%rip), %r12d
	imull	84+arr(%rip), %r12d
	imull	88+arr(%rip), %r12d
	imull	92+arr(%rip), %r12d
	imull	96+arr(%rip), %r12d
	imull	896+arr(%rip), %ebp
	imull	1696+arr(%rip), %edi
	imull	2496+arr(%rip), %r11d
	imull	3296+arr(%rip), %r10d
	imull	4096+arr(%rip), %r9d
	imull	4896+arr(%rip), %r8d
	imull	5696+arr(%rip), %ecx
	imull	6496+arr(%rip), %edx
	imull	7296+arr(%rip), %eax
	imull	900+arr(%rip), %ebp
	imull	904+arr(%rip), %ebp
	imull	908+arr(%rip), %ebp
	imull	912+arr(%rip), %ebp
	imull	916+arr(%rip), %ebp
	imull	920+arr(%rip), %ebp
	imull	924+arr(%rip), %ebp
	imull	928+arr(%rip), %ebp
	imull	932+arr(%rip), %ebp
	imull	936+arr(%rip), %ebp
	imull	940+arr(%rip), %ebp
	imull	944+arr(%rip), %ebp
	imull	948+arr(%rip), %ebp
	imull	952+arr(%rip), %ebp
	imull	956+arr(%rip), %ebp
	imull	960+arr(%rip), %ebp
	imull	964+arr(%rip), %ebp
	imull	968+arr(%rip), %ebp
	imull	972+arr(%rip), %ebp
	imull	976+arr(%rip), %ebp
	imull	980+arr(%rip), %ebp
	imull	984+arr(%rip), %ebp
	imull	988+arr(%rip), %ebp
	imull	992+arr(%rip), %ebp
	imull	1700+arr(%rip), %edi
	imull	1704+arr(%rip), %edi
	imull	1708+arr(%rip), %edi
	imull	1712+arr(%rip), %edi
	imull	1716+arr(%rip), %edi
	imull	1720+arr(%rip), %edi
	imull	1724+arr(%rip), %edi
	imull	1728+arr(%rip), %edi
	imull	1732+arr(%rip), %edi
	imull	1736+arr(%rip), %edi
	imull	1740+arr(%rip), %edi
	imull	1744+arr(%rip), %edi
	imull	1748+arr(%rip), %edi
	imull	1752+arr(%rip), %edi
	imull	1756+arr(%rip), %edi
	imull	1760+arr(%rip), %edi
	imull	1764+arr(%rip), %edi
	imull	1768+arr(%rip), %edi
	imull	1772+arr(%rip), %edi
	imull	1776+arr(%rip), %edi
	imull	1780+arr(%rip), %edi
	imull	1784+arr(%rip), %edi
	imull	1788+arr(%rip), %edi
	imull	1792+arr(%rip), %edi
	imull	2500+arr(%rip), %r11d
	imull	2504+arr(%rip), %r11d
	imull	2508+arr(%rip), %r11d
	imull	2512+arr(%rip), %r11d
	imull	2516+arr(%rip), %r11d
	imull	2520+arr(%rip), %r11d
	imull	2524+arr(%rip), %r11d
	imull	2528+arr(%rip), %r11d
	imull	2532+arr(%rip), %r11d
	imull	2536+arr(%rip), %r11d
	imull	2540+arr(%rip), %r11d
	imull	2544+arr(%rip), %r11d
	imull	2548+arr(%rip), %r11d
	imull	2552+arr(%rip), %r11d
	imull	2556+arr(%rip), %r11d
	imull	2560+arr(%rip), %r11d
	imull	2564+arr(%rip), %r11d
	imull	2568+arr(%rip), %r11d
	imull	2572+arr(%rip), %r11d
	imull	2576+arr(%rip), %r11d
	imull	2580+arr(%rip), %r11d
	imull	2584+arr(%rip), %r11d
	imull	2588+arr(%rip), %r11d
	imull	2592+arr(%rip), %r11d
	imull	3300+arr(%rip), %r10d
	imull	3304+arr(%rip), %r10d
	imull	3308+arr(%rip), %r10d
	imull	3312+arr(%rip), %r10d
	imull	3316+arr(%rip), %r10d
	imull	3320+arr(%rip), %r10d
	imull	3324+arr(%rip), %r10d
	imull	3328+arr(%rip), %r10d
	imull	3332+arr(%rip), %r10d
	imull	3336+arr(%rip), %r10d
	imull	3340+arr(%rip), %r10d
	imull	3344+arr(%rip), %r10d
	imull	3348+arr(%rip), %r10d
	imull	3352+arr(%rip), %r10d
	imull	3356+arr(%rip), %r10d
	imull	3360+arr(%rip), %r10d
	imull	3364+arr(%rip), %r10d
	imull	3368+arr(%rip), %r10d
	imull	3372+arr(%rip), %r10d
	imull	3376+arr(%rip), %r10d
	imull	3380+arr(%rip), %r10d
	imull	3384+arr(%rip), %r10d
	imull	3388+arr(%rip), %r10d
	imull	3392+arr(%rip), %r10d
	imull	4100+arr(%rip), %r9d
	imull	4104+arr(%rip), %r9d
	imull	4108+arr(%rip), %r9d
	imull	4112+arr(%rip), %r9d
	imull	4116+arr(%rip), %r9d
	imull	4120+arr(%rip), %r9d
	imull	4124+arr(%rip), %r9d
	imull	4128+arr(%rip), %r9d
	imull	4132+arr(%rip), %r9d
	imull	4136+arr(%rip), %r9d
	imull	4140+arr(%rip), %r9d
	imull	4144+arr(%rip), %r9d
	imull	4148+arr(%rip), %r9d
	imull	4152+arr(%rip), %r9d
	imull	4156+arr(%rip), %r9d
	imull	4160+arr(%rip), %r9d
	imull	4164+arr(%rip), %r9d
	imull	4168+arr(%rip), %r9d
	imull	4172+arr(%rip), %r9d
	imull	4176+arr(%rip), %r9d
	imull	4180+arr(%rip), %r9d
	imull	4184+arr(%rip), %r9d
	imull	4188+arr(%rip), %r9d
	imull	4192+arr(%rip), %r9d
	imull	4900+arr(%rip), %r8d
	imull	4904+arr(%rip), %r8d
	imull	4908+arr(%rip), %r8d
	imull	4912+arr(%rip), %r8d
	imull	4916+arr(%rip), %r8d
	imull	4920+arr(%rip), %r8d
	imull	4924+arr(%rip), %r8d
	imull	4928+arr(%rip), %r8d
	imull	4932+arr(%rip), %r8d
	imull	4936+arr(%rip), %r8d
	imull	4940+arr(%rip), %r8d
	imull	4944+arr(%rip), %r8d
	imull	4948+arr(%rip), %r8d
	imull	4952+arr(%rip), %r8d
	imull	4956+arr(%rip), %r8d
	imull	4960+arr(%rip), %r8d
	imull	4964+arr(%rip), %r8d
	imull	4968+arr(%rip), %r8d
	imull	4972+arr(%rip), %r8d
	imull	4976+arr(%rip), %r8d
	imull	4980+arr(%rip), %r8d
	imull	4984+arr(%rip), %r8d
	imull	4988+arr(%rip), %r8d
	imull	4992+arr(%rip), %r8d
	imull	5700+arr(%rip), %ecx
	imull	5704+arr(%rip), %ecx
	imull	5708+arr(%rip), %ecx
	imull	5712+arr(%rip), %ecx
	imull	5716+arr(%rip), %ecx
	imull	5720+arr(%rip), %ecx
	imull	5724+arr(%rip), %ecx
	imull	5728+arr(%rip), %ecx
	imull	5732+arr(%rip), %ecx
	imull	5736+arr(%rip), %ecx
	imull	5740+arr(%rip), %ecx
	imull	5744+arr(%rip), %ecx
	imull	5748+arr(%rip), %ecx
	imull	5752+arr(%rip), %ecx
	imull	5756+arr(%rip), %ecx
	imull	5760+arr(%rip), %ecx
	imull	5764+arr(%rip), %ecx
	imull	5768+arr(%rip), %ecx
	imull	5772+arr(%rip), %ecx
	imull	5776+arr(%rip), %ecx
	imull	5780+arr(%rip), %ecx
	imull	5784+arr(%rip), %ecx
	imull	5788+arr(%rip), %ecx
	imull	5792+arr(%rip), %ecx
	imull	6500+arr(%rip), %edx
	imull	6504+arr(%rip), %edx
	imull	6508+arr(%rip), %edx
	imull	6512+arr(%rip), %edx
	imull	6516+arr(%rip), %edx
	imull	6520+arr(%rip), %edx
	imull	6524+arr(%rip), %edx
	imull	6528+arr(%rip), %edx
	imull	6532+arr(%rip), %edx
	imull	6536+arr(%rip), %edx
	imull	6540+arr(%rip), %edx
	imull	6544+arr(%rip), %edx
	imull	6548+arr(%rip), %edx
	imull	6552+arr(%rip), %edx
	imull	6556+arr(%rip), %edx
	imull	6560+arr(%rip), %edx
	imull	6564+arr(%rip), %edx
	imull	6568+arr(%rip), %edx
	imull	6572+arr(%rip), %edx
	imull	6576+arr(%rip), %edx
	imull	6580+arr(%rip), %edx
	imull	6584+arr(%rip), %edx
	imull	6588+arr(%rip), %edx
	imull	6592+arr(%rip), %edx
	imull	7300+arr(%rip), %eax
	imull	7304+arr(%rip), %eax
	imull	7308+arr(%rip), %eax
	imull	7312+arr(%rip), %eax
	imull	7316+arr(%rip), %eax
	imull	7320+arr(%rip), %eax
	imull	7324+arr(%rip), %eax
	imull	7328+arr(%rip), %eax
	imull	7332+arr(%rip), %eax
	imull	7336+arr(%rip), %eax
	imull	7340+arr(%rip), %eax
	imull	7344+arr(%rip), %eax
	imull	7348+arr(%rip), %eax
	imull	7352+arr(%rip), %eax
	imull	7356+arr(%rip), %eax
	imull	7360+arr(%rip), %eax
	imull	7364+arr(%rip), %eax
	imull	7368+arr(%rip), %eax
	imull	7372+arr(%rip), %eax
	imull	7376+arr(%rip), %eax
	imull	7380+arr(%rip), %eax
	imull	7384+arr(%rip), %eax
	imull	7388+arr(%rip), %eax
	imull	7392+arr(%rip), %eax
	imull	100+arr(%rip), %r12d
	imull	104+arr(%rip), %r12d
	imull	108+arr(%rip), %r12d
	imull	112+arr(%rip), %r12d
	imull	116+arr(%rip), %r12d
	imull	120+arr(%rip), %r12d
	imull	124+arr(%rip), %r12d
	imull	128+arr(%rip), %r12d
	imull	132+arr(%rip), %r12d
	imull	136+arr(%rip), %r12d
	imull	140+arr(%rip), %r12d
	imull	144+arr(%rip), %r12d
	imull	148+arr(%rip), %r12d
	imull	152+arr(%rip), %r12d
	imull	156+arr(%rip), %r12d
	imull	160+arr(%rip), %r12d
	imull	164+arr(%rip), %r12d
	imull	168+arr(%rip), %r12d
	imull	172+arr(%rip), %r12d
	imull	176+arr(%rip), %r12d
	imull	180+arr(%rip), %r12d
	imull	184+arr(%rip), %r12d
	imull	188+arr(%rip), %r12d
	imull	192+arr(%rip), %r12d
	imull	196+arr(%rip), %r12d
	imull	996+arr(%rip), %ebp
	imull	1796+arr(%rip), %edi
	imull	2596+arr(%rip), %r11d
	imull	3396+arr(%rip), %r10d
	imull	4196+arr(%rip), %r9d
	imull	4996+arr(%rip), %r8d
	imull	5796+arr(%rip), %ecx
	imull	6596+arr(%rip), %edx
	imull	7396+arr(%rip), %eax
	imull	1000+arr(%rip), %ebp
	imull	1004+arr(%rip), %ebp
	imull	1008+arr(%rip), %ebp
	imull	1012+arr(%rip), %ebp
	imull	1016+arr(%rip), %ebp
	imull	1020+arr(%rip), %ebp
	imull	1024+arr(%rip), %ebp
	imull	1028+arr(%rip), %ebp
	imull	1032+arr(%rip), %ebp
	imull	1036+arr(%rip), %ebp
	imull	1040+arr(%rip), %ebp
	imull	1044+arr(%rip), %ebp
	imull	1048+arr(%rip), %ebp
	imull	1052+arr(%rip), %ebp
	imull	1056+arr(%rip), %ebp
	imull	1060+arr(%rip), %ebp
	imull	1064+arr(%rip), %ebp
	imull	1068+arr(%rip), %ebp
	imull	1072+arr(%rip), %ebp
	imull	1076+arr(%rip), %ebp
	imull	1080+arr(%rip), %ebp
	imull	1084+arr(%rip), %ebp
	imull	1088+arr(%rip), %ebp
	imull	1092+arr(%rip), %ebp
	imull	1800+arr(%rip), %edi
	imull	1804+arr(%rip), %edi
	imull	1808+arr(%rip), %edi
	imull	1812+arr(%rip), %edi
	imull	1816+arr(%rip), %edi
	imull	1820+arr(%rip), %edi
	imull	1824+arr(%rip), %edi
	imull	1828+arr(%rip), %edi
	imull	1832+arr(%rip), %edi
	imull	1836+arr(%rip), %edi
	imull	1840+arr(%rip), %edi
	imull	1844+arr(%rip), %edi
	imull	1848+arr(%rip), %edi
	imull	1852+arr(%rip), %edi
	imull	1856+arr(%rip), %edi
	imull	1860+arr(%rip), %edi
	imull	1864+arr(%rip), %edi
	imull	1868+arr(%rip), %edi
	imull	1872+arr(%rip), %edi
	imull	1876+arr(%rip), %edi
	imull	1880+arr(%rip), %edi
	imull	1884+arr(%rip), %edi
	imull	1888+arr(%rip), %edi
	imull	1892+arr(%rip), %edi
	imull	2600+arr(%rip), %r11d
	imull	2604+arr(%rip), %r11d
	imull	2608+arr(%rip), %r11d
	imull	2612+arr(%rip), %r11d
	imull	2616+arr(%rip), %r11d
	imull	2620+arr(%rip), %r11d
	imull	2624+arr(%rip), %r11d
	imull	2628+arr(%rip), %r11d
	imull	2632+arr(%rip), %r11d
	imull	2636+arr(%rip), %r11d
	imull	2640+arr(%rip), %r11d
	imull	2644+arr(%rip), %r11d
	imull	2648+arr(%rip), %r11d
	imull	2652+arr(%rip), %r11d
	imull	2656+arr(%rip), %r11d
	imull	2660+arr(%rip), %r11d
	imull	2664+arr(%rip), %r11d
	imull	2668+arr(%rip), %r11d
	imull	2672+arr(%rip), %r11d
	imull	2676+arr(%rip), %r11d
	imull	2680+arr(%rip), %r11d
	imull	2684+arr(%rip), %r11d
	imull	2688+arr(%rip), %r11d
	imull	2692+arr(%rip), %r11d
	imull	3400+arr(%rip), %r10d
	imull	3404+arr(%rip), %r10d
	imull	3408+arr(%rip), %r10d
	imull	3412+arr(%rip), %r10d
	imull	3416+arr(%rip), %r10d
	imull	3420+arr(%rip), %r10d
	imull	3424+arr(%rip), %r10d
	imull	3428+arr(%rip), %r10d
	imull	3432+arr(%rip), %r10d
	imull	3436+arr(%rip), %r10d
	imull	3440+arr(%rip), %r10d
	imull	3444+arr(%rip), %r10d
	imull	3448+arr(%rip), %r10d
	imull	3452+arr(%rip), %r10d
	imull	3456+arr(%rip), %r10d
	imull	3460+arr(%rip), %r10d
	imull	3464+arr(%rip), %r10d
	imull	3468+arr(%rip), %r10d
	imull	3472+arr(%rip), %r10d
	imull	3476+arr(%rip), %r10d
	imull	3480+arr(%rip), %r10d
	imull	3484+arr(%rip), %r10d
	imull	3488+arr(%rip), %r10d
	imull	3492+arr(%rip), %r10d
	imull	4200+arr(%rip), %r9d
	imull	4204+arr(%rip), %r9d
	imull	4208+arr(%rip), %r9d
	imull	4212+arr(%rip), %r9d
	imull	4216+arr(%rip), %r9d
	imull	4220+arr(%rip), %r9d
	imull	4224+arr(%rip), %r9d
	imull	4228+arr(%rip), %r9d
	imull	4232+arr(%rip), %r9d
	imull	4236+arr(%rip), %r9d
	imull	4240+arr(%rip), %r9d
	imull	4244+arr(%rip), %r9d
	imull	4248+arr(%rip), %r9d
	imull	4252+arr(%rip), %r9d
	imull	4256+arr(%rip), %r9d
	imull	4260+arr(%rip), %r9d
	imull	4264+arr(%rip), %r9d
	imull	4268+arr(%rip), %r9d
	imull	4272+arr(%rip), %r9d
	imull	4276+arr(%rip), %r9d
	imull	4280+arr(%rip), %r9d
	imull	4284+arr(%rip), %r9d
	imull	4288+arr(%rip), %r9d
	imull	4292+arr(%rip), %r9d
	imull	5000+arr(%rip), %r8d
	imull	5004+arr(%rip), %r8d
	imull	5008+arr(%rip), %r8d
	imull	5012+arr(%rip), %r8d
	imull	5016+arr(%rip), %r8d
	imull	5020+arr(%rip), %r8d
	imull	5024+arr(%rip), %r8d
	imull	5028+arr(%rip), %r8d
	imull	5032+arr(%rip), %r8d
	imull	5036+arr(%rip), %r8d
	imull	5040+arr(%rip), %r8d
	imull	5044+arr(%rip), %r8d
	imull	5048+arr(%rip), %r8d
	imull	5052+arr(%rip), %r8d
	imull	5056+arr(%rip), %r8d
	imull	5060+arr(%rip), %r8d
	imull	5064+arr(%rip), %r8d
	imull	5068+arr(%rip), %r8d
	imull	5072+arr(%rip), %r8d
	imull	5076+arr(%rip), %r8d
	imull	5080+arr(%rip), %r8d
	imull	5084+arr(%rip), %r8d
	imull	5088+arr(%rip), %r8d
	imull	5092+arr(%rip), %r8d
	imull	5800+arr(%rip), %ecx
	imull	5804+arr(%rip), %ecx
	imull	5808+arr(%rip), %ecx
	imull	5812+arr(%rip), %ecx
	imull	5816+arr(%rip), %ecx
	imull	5820+arr(%rip), %ecx
	imull	5824+arr(%rip), %ecx
	imull	5828+arr(%rip), %ecx
	imull	5832+arr(%rip), %ecx
	imull	5836+arr(%rip), %ecx
	imull	5840+arr(%rip), %ecx
	imull	5844+arr(%rip), %ecx
	imull	5848+arr(%rip), %ecx
	imull	5852+arr(%rip), %ecx
	imull	5856+arr(%rip), %ecx
	imull	5860+arr(%rip), %ecx
	imull	5864+arr(%rip), %ecx
	imull	5868+arr(%rip), %ecx
	imull	5872+arr(%rip), %ecx
	imull	5876+arr(%rip), %ecx
	imull	5880+arr(%rip), %ecx
	imull	5884+arr(%rip), %ecx
	imull	5888+arr(%rip), %ecx
	imull	5892+arr(%rip), %ecx
	imull	6600+arr(%rip), %edx
	imull	6604+arr(%rip), %edx
	imull	6608+arr(%rip), %edx
	imull	6612+arr(%rip), %edx
	imull	6616+arr(%rip), %edx
	imull	6620+arr(%rip), %edx
	imull	6624+arr(%rip), %edx
	imull	6628+arr(%rip), %edx
	imull	6632+arr(%rip), %edx
	imull	6636+arr(%rip), %edx
	imull	6640+arr(%rip), %edx
	imull	6644+arr(%rip), %edx
	imull	6648+arr(%rip), %edx
	imull	6652+arr(%rip), %edx
	imull	6656+arr(%rip), %edx
	imull	6660+arr(%rip), %edx
	imull	6664+arr(%rip), %edx
	imull	6668+arr(%rip), %edx
	imull	6672+arr(%rip), %edx
	imull	6676+arr(%rip), %edx
	imull	6680+arr(%rip), %edx
	imull	6684+arr(%rip), %edx
	imull	6688+arr(%rip), %edx
	imull	6692+arr(%rip), %edx
	imull	7400+arr(%rip), %eax
	imull	7404+arr(%rip), %eax
	imull	7408+arr(%rip), %eax
	imull	7412+arr(%rip), %eax
	imull	7416+arr(%rip), %eax
	imull	7420+arr(%rip), %eax
	imull	7424+arr(%rip), %eax
	imull	7428+arr(%rip), %eax
	imull	7432+arr(%rip), %eax
	imull	7436+arr(%rip), %eax
	imull	7440+arr(%rip), %eax
	imull	7444+arr(%rip), %eax
	imull	7448+arr(%rip), %eax
	imull	7452+arr(%rip), %eax
	imull	7456+arr(%rip), %eax
	imull	7460+arr(%rip), %eax
	imull	7464+arr(%rip), %eax
	imull	7468+arr(%rip), %eax
	imull	7472+arr(%rip), %eax
	imull	7476+arr(%rip), %eax
	imull	7480+arr(%rip), %eax
	imull	7484+arr(%rip), %eax
	imull	7488+arr(%rip), %eax
	imull	7492+arr(%rip), %eax
	imull	200+arr(%rip), %r12d
	imull	204+arr(%rip), %r12d
	imull	208+arr(%rip), %r12d
	imull	212+arr(%rip), %r12d
	imull	216+arr(%rip), %r12d
	imull	220+arr(%rip), %r12d
	imull	224+arr(%rip), %r12d
	imull	228+arr(%rip), %r12d
	imull	232+arr(%rip), %r12d
	imull	236+arr(%rip), %r12d
	imull	240+arr(%rip), %r12d
	imull	244+arr(%rip), %r12d
	imull	248+arr(%rip), %r12d
	imull	252+arr(%rip), %r12d
	imull	256+arr(%rip), %r12d
	imull	260+arr(%rip), %r12d
	imull	264+arr(%rip), %r12d
	imull	268+arr(%rip), %r12d
	imull	272+arr(%rip), %r12d
	imull	276+arr(%rip), %r12d
	imull	280+arr(%rip), %r12d
	imull	284+arr(%rip), %r12d
	imull	288+arr(%rip), %r12d
	imull	292+arr(%rip), %r12d
	imull	296+arr(%rip), %r12d
	imull	1096+arr(%rip), %ebp
	imull	1896+arr(%rip), %edi
	imull	2696+arr(%rip), %r11d
	imull	3496+arr(%rip), %r10d
	imull	4296+arr(%rip), %r9d
	imull	5096+arr(%rip), %r8d
	imull	5896+arr(%rip), %ecx
	imull	6696+arr(%rip), %edx
	imull	7496+arr(%rip), %eax
	imull	1100+arr(%rip), %ebp
	imull	1104+arr(%rip), %ebp
	imull	1108+arr(%rip), %ebp
	imull	1112+arr(%rip), %ebp
	imull	1116+arr(%rip), %ebp
	imull	1120+arr(%rip), %ebp
	imull	1124+arr(%rip), %ebp
	imull	1128+arr(%rip), %ebp
	imull	1132+arr(%rip), %ebp
	imull	1136+arr(%rip), %ebp
	imull	1140+arr(%rip), %ebp
	imull	1144+arr(%rip), %ebp
	imull	1148+arr(%rip), %ebp
	imull	1152+arr(%rip), %ebp
	imull	1156+arr(%rip), %ebp
	imull	1160+arr(%rip), %ebp
	imull	1164+arr(%rip), %ebp
	imull	1168+arr(%rip), %ebp
	imull	1172+arr(%rip), %ebp
	imull	1176+arr(%rip), %ebp
	imull	1180+arr(%rip), %ebp
	imull	1184+arr(%rip), %ebp
	imull	1188+arr(%rip), %ebp
	imull	1192+arr(%rip), %ebp
	imull	1900+arr(%rip), %edi
	imull	1904+arr(%rip), %edi
	imull	1908+arr(%rip), %edi
	imull	1912+arr(%rip), %edi
	imull	1916+arr(%rip), %edi
	imull	1920+arr(%rip), %edi
	imull	1924+arr(%rip), %edi
	imull	1928+arr(%rip), %edi
	imull	1932+arr(%rip), %edi
	imull	1936+arr(%rip), %edi
	imull	1940+arr(%rip), %edi
	imull	1944+arr(%rip), %edi
	imull	1948+arr(%rip), %edi
	imull	1952+arr(%rip), %edi
	imull	1956+arr(%rip), %edi
	imull	1960+arr(%rip), %edi
	imull	1964+arr(%rip), %edi
	imull	1968+arr(%rip), %edi
	imull	1972+arr(%rip), %edi
	imull	1976+arr(%rip), %edi
	imull	1980+arr(%rip), %edi
	imull	1984+arr(%rip), %edi
	imull	1988+arr(%rip), %edi
	imull	1992+arr(%rip), %edi
	imull	2700+arr(%rip), %r11d
	imull	2704+arr(%rip), %r11d
	imull	2708+arr(%rip), %r11d
	imull	2712+arr(%rip), %r11d
	imull	2716+arr(%rip), %r11d
	imull	2720+arr(%rip), %r11d
	imull	2724+arr(%rip), %r11d
	imull	2728+arr(%rip), %r11d
	imull	2732+arr(%rip), %r11d
	imull	2736+arr(%rip), %r11d
	imull	2740+arr(%rip), %r11d
	imull	2744+arr(%rip), %r11d
	imull	2748+arr(%rip), %r11d
	imull	2752+arr(%rip), %r11d
	imull	2756+arr(%rip), %r11d
	imull	2760+arr(%rip), %r11d
	imull	2764+arr(%rip), %r11d
	imull	2768+arr(%rip), %r11d
	imull	2772+arr(%rip), %r11d
	imull	2776+arr(%rip), %r11d
	imull	2780+arr(%rip), %r11d
	imull	2784+arr(%rip), %r11d
	imull	2788+arr(%rip), %r11d
	imull	2792+arr(%rip), %r11d
	imull	3500+arr(%rip), %r10d
	imull	3504+arr(%rip), %r10d
	imull	3508+arr(%rip), %r10d
	imull	3512+arr(%rip), %r10d
	imull	3516+arr(%rip), %r10d
	imull	3520+arr(%rip), %r10d
	imull	3524+arr(%rip), %r10d
	imull	3528+arr(%rip), %r10d
	imull	3532+arr(%rip), %r10d
	imull	3536+arr(%rip), %r10d
	imull	3540+arr(%rip), %r10d
	imull	3544+arr(%rip), %r10d
	imull	3548+arr(%rip), %r10d
	imull	3552+arr(%rip), %r10d
	imull	3556+arr(%rip), %r10d
	imull	3560+arr(%rip), %r10d
	imull	3564+arr(%rip), %r10d
	imull	3568+arr(%rip), %r10d
	imull	3572+arr(%rip), %r10d
	imull	3576+arr(%rip), %r10d
	imull	3580+arr(%rip), %r10d
	imull	3584+arr(%rip), %r10d
	imull	3588+arr(%rip), %r10d
	imull	3592+arr(%rip), %r10d
	imull	4300+arr(%rip), %r9d
	imull	4304+arr(%rip), %r9d
	imull	4308+arr(%rip), %r9d
	imull	4312+arr(%rip), %r9d
	imull	4316+arr(%rip), %r9d
	imull	4320+arr(%rip), %r9d
	imull	4324+arr(%rip), %r9d
	imull	4328+arr(%rip), %r9d
	imull	4332+arr(%rip), %r9d
	imull	4336+arr(%rip), %r9d
	imull	4340+arr(%rip), %r9d
	imull	4344+arr(%rip), %r9d
	imull	4348+arr(%rip), %r9d
	imull	4352+arr(%rip), %r9d
	imull	4356+arr(%rip), %r9d
	imull	4360+arr(%rip), %r9d
	imull	4364+arr(%rip), %r9d
	imull	4368+arr(%rip), %r9d
	imull	4372+arr(%rip), %r9d
	imull	4376+arr(%rip), %r9d
	imull	4380+arr(%rip), %r9d
	imull	4384+arr(%rip), %r9d
	imull	4388+arr(%rip), %r9d
	imull	4392+arr(%rip), %r9d
	imull	5100+arr(%rip), %r8d
	imull	5104+arr(%rip), %r8d
	imull	5108+arr(%rip), %r8d
	imull	5112+arr(%rip), %r8d
	imull	5116+arr(%rip), %r8d
	imull	5120+arr(%rip), %r8d
	imull	5124+arr(%rip), %r8d
	imull	5128+arr(%rip), %r8d
	imull	5132+arr(%rip), %r8d
	imull	5136+arr(%rip), %r8d
	imull	5140+arr(%rip), %r8d
	imull	5144+arr(%rip), %r8d
	imull	5148+arr(%rip), %r8d
	imull	5152+arr(%rip), %r8d
	imull	5156+arr(%rip), %r8d
	imull	5160+arr(%rip), %r8d
	imull	5164+arr(%rip), %r8d
	imull	5168+arr(%rip), %r8d
	imull	5172+arr(%rip), %r8d
	imull	5176+arr(%rip), %r8d
	imull	5180+arr(%rip), %r8d
	imull	5184+arr(%rip), %r8d
	imull	5188+arr(%rip), %r8d
	imull	5192+arr(%rip), %r8d
	imull	5900+arr(%rip), %ecx
	imull	5904+arr(%rip), %ecx
	imull	5908+arr(%rip), %ecx
	imull	5912+arr(%rip), %ecx
	imull	5916+arr(%rip), %ecx
	imull	5920+arr(%rip), %ecx
	imull	5924+arr(%rip), %ecx
	imull	5928+arr(%rip), %ecx
	imull	5932+arr(%rip), %ecx
	imull	5936+arr(%rip), %ecx
	imull	5940+arr(%rip), %ecx
	imull	5944+arr(%rip), %ecx
	imull	5948+arr(%rip), %ecx
	imull	5952+arr(%rip), %ecx
	imull	5956+arr(%rip), %ecx
	imull	5960+arr(%rip), %ecx
	imull	5964+arr(%rip), %ecx
	imull	5968+arr(%rip), %ecx
	imull	5972+arr(%rip), %ecx
	imull	5976+arr(%rip), %ecx
	imull	5980+arr(%rip), %ecx
	imull	5984+arr(%rip), %ecx
	imull	5988+arr(%rip), %ecx
	imull	5992+arr(%rip), %ecx
	imull	6700+arr(%rip), %edx
	imull	6704+arr(%rip), %edx
	imull	6708+arr(%rip), %edx
	imull	6712+arr(%rip), %edx
	imull	6716+arr(%rip), %edx
	imull	6720+arr(%rip), %edx
	imull	6724+arr(%rip), %edx
	imull	6728+arr(%rip), %edx
	imull	6732+arr(%rip), %edx
	imull	6736+arr(%rip), %edx
	imull	6740+arr(%rip), %edx
	imull	6744+arr(%rip), %edx
	imull	6748+arr(%rip), %edx
	imull	6752+arr(%rip), %edx
	imull	6756+arr(%rip), %edx
	imull	6760+arr(%rip), %edx
	imull	6764+arr(%rip), %edx
	imull	6768+arr(%rip), %edx
	imull	6772+arr(%rip), %edx
	imull	6776+arr(%rip), %edx
	imull	6780+arr(%rip), %edx
	imull	6784+arr(%rip), %edx
	imull	6788+arr(%rip), %edx
	imull	6792+arr(%rip), %edx
	imull	7500+arr(%rip), %eax
	imull	7504+arr(%rip), %eax
	imull	7508+arr(%rip), %eax
	imull	7512+arr(%rip), %eax
	imull	7516+arr(%rip), %eax
	imull	7520+arr(%rip), %eax
	imull	7524+arr(%rip), %eax
	imull	7528+arr(%rip), %eax
	imull	7532+arr(%rip), %eax
	imull	7536+arr(%rip), %eax
	imull	7540+arr(%rip), %eax
	imull	7544+arr(%rip), %eax
	imull	7548+arr(%rip), %eax
	imull	7552+arr(%rip), %eax
	imull	7556+arr(%rip), %eax
	imull	7560+arr(%rip), %eax
	imull	7564+arr(%rip), %eax
	imull	7568+arr(%rip), %eax
	imull	7572+arr(%rip), %eax
	imull	7576+arr(%rip), %eax
	imull	7580+arr(%rip), %eax
	imull	7584+arr(%rip), %eax
	imull	7588+arr(%rip), %eax
	imull	7592+arr(%rip), %eax
	imull	300+arr(%rip), %r12d
	imull	304+arr(%rip), %r12d
	imull	308+arr(%rip), %r12d
	imull	312+arr(%rip), %r12d
	imull	316+arr(%rip), %r12d
	imull	320+arr(%rip), %r12d
	imull	324+arr(%rip), %r12d
	imull	328+arr(%rip), %r12d
	imull	332+arr(%rip), %r12d
	imull	336+arr(%rip), %r12d
	imull	340+arr(%rip), %r12d
	imull	344+arr(%rip), %r12d
	imull	348+arr(%rip), %r12d
	imull	352+arr(%rip), %r12d
	imull	356+arr(%rip), %r12d
	imull	360+arr(%rip), %r12d
	imull	364+arr(%rip), %r12d
	imull	368+arr(%rip), %r12d
	imull	372+arr(%rip), %r12d
	imull	376+arr(%rip), %r12d
	imull	380+arr(%rip), %r12d
	imull	384+arr(%rip), %r12d
	imull	388+arr(%rip), %r12d
	imull	392+arr(%rip), %r12d
	imull	396+arr(%rip), %r12d
	imull	1196+arr(%rip), %ebp
	imull	1996+arr(%rip), %edi
	imull	2796+arr(%rip), %r11d
	imull	3596+arr(%rip), %r10d
	imull	4396+arr(%rip), %r9d
	imull	5196+arr(%rip), %r8d
	imull	5996+arr(%rip), %ecx
	imull	6796+arr(%rip), %edx
	imull	7596+arr(%rip), %eax
	imull	1200+arr(%rip), %ebp
	imull	1204+arr(%rip), %ebp
	imull	1208+arr(%rip), %ebp
	imull	1212+arr(%rip), %ebp
	imull	1216+arr(%rip), %ebp
	imull	1220+arr(%rip), %ebp
	imull	1224+arr(%rip), %ebp
	imull	1228+arr(%rip), %ebp
	imull	1232+arr(%rip), %ebp
	imull	1236+arr(%rip), %ebp
	imull	1240+arr(%rip), %ebp
	imull	1244+arr(%rip), %ebp
	imull	1248+arr(%rip), %ebp
	imull	1252+arr(%rip), %ebp
	imull	1256+arr(%rip), %ebp
	imull	1260+arr(%rip), %ebp
	imull	1264+arr(%rip), %ebp
	imull	1268+arr(%rip), %ebp
	imull	1272+arr(%rip), %ebp
	imull	1276+arr(%rip), %ebp
	imull	1280+arr(%rip), %ebp
	imull	1284+arr(%rip), %ebp
	imull	1288+arr(%rip), %ebp
	imull	1292+arr(%rip), %ebp
	imull	2000+arr(%rip), %edi
	imull	2004+arr(%rip), %edi
	imull	2008+arr(%rip), %edi
	imull	2012+arr(%rip), %edi
	imull	2016+arr(%rip), %edi
	imull	2020+arr(%rip), %edi
	imull	2024+arr(%rip), %edi
	imull	2028+arr(%rip), %edi
	imull	2032+arr(%rip), %edi
	imull	2036+arr(%rip), %edi
	imull	2040+arr(%rip), %edi
	imull	2044+arr(%rip), %edi
	imull	2048+arr(%rip), %edi
	imull	2052+arr(%rip), %edi
	imull	2056+arr(%rip), %edi
	imull	2060+arr(%rip), %edi
	imull	2064+arr(%rip), %edi
	imull	2068+arr(%rip), %edi
	imull	2072+arr(%rip), %edi
	imull	2076+arr(%rip), %edi
	imull	2080+arr(%rip), %edi
	imull	2084+arr(%rip), %edi
	imull	2088+arr(%rip), %edi
	imull	2092+arr(%rip), %edi
	imull	2800+arr(%rip), %r11d
	imull	2804+arr(%rip), %r11d
	imull	2808+arr(%rip), %r11d
	imull	2812+arr(%rip), %r11d
	imull	2816+arr(%rip), %r11d
	imull	2820+arr(%rip), %r11d
	imull	2824+arr(%rip), %r11d
	imull	2828+arr(%rip), %r11d
	imull	2832+arr(%rip), %r11d
	imull	2836+arr(%rip), %r11d
	imull	2840+arr(%rip), %r11d
	imull	2844+arr(%rip), %r11d
	imull	2848+arr(%rip), %r11d
	imull	2852+arr(%rip), %r11d
	imull	2856+arr(%rip), %r11d
	imull	2860+arr(%rip), %r11d
	imull	2864+arr(%rip), %r11d
	imull	2868+arr(%rip), %r11d
	imull	2872+arr(%rip), %r11d
	imull	2876+arr(%rip), %r11d
	imull	2880+arr(%rip), %r11d
	imull	2884+arr(%rip), %r11d
	imull	2888+arr(%rip), %r11d
	imull	2892+arr(%rip), %r11d
	imull	3600+arr(%rip), %r10d
	imull	3604+arr(%rip), %r10d
	imull	3608+arr(%rip), %r10d
	imull	3612+arr(%rip), %r10d
	imull	3616+arr(%rip), %r10d
	imull	3620+arr(%rip), %r10d
	imull	3624+arr(%rip), %r10d
	imull	3628+arr(%rip), %r10d
	imull	3632+arr(%rip), %r10d
	imull	3636+arr(%rip), %r10d
	imull	3640+arr(%rip), %r10d
	imull	3644+arr(%rip), %r10d
	imull	3648+arr(%rip), %r10d
	imull	3652+arr(%rip), %r10d
	imull	3656+arr(%rip), %r10d
	imull	3660+arr(%rip), %r10d
	imull	3664+arr(%rip), %r10d
	imull	3668+arr(%rip), %r10d
	imull	3672+arr(%rip), %r10d
	imull	3676+arr(%rip), %r10d
	imull	3680+arr(%rip), %r10d
	imull	3684+arr(%rip), %r10d
	imull	3688+arr(%rip), %r10d
	imull	3692+arr(%rip), %r10d
	imull	4400+arr(%rip), %r9d
	imull	4404+arr(%rip), %r9d
	imull	4408+arr(%rip), %r9d
	imull	4412+arr(%rip), %r9d
	imull	4416+arr(%rip), %r9d
	imull	4420+arr(%rip), %r9d
	imull	4424+arr(%rip), %r9d
	imull	4428+arr(%rip), %r9d
	imull	4432+arr(%rip), %r9d
	imull	4436+arr(%rip), %r9d
	imull	4440+arr(%rip), %r9d
	imull	4444+arr(%rip), %r9d
	imull	4448+arr(%rip), %r9d
	imull	4452+arr(%rip), %r9d
	imull	4456+arr(%rip), %r9d
	imull	4460+arr(%rip), %r9d
	imull	4464+arr(%rip), %r9d
	imull	4468+arr(%rip), %r9d
	imull	4472+arr(%rip), %r9d
	imull	4476+arr(%rip), %r9d
	imull	4480+arr(%rip), %r9d
	imull	4484+arr(%rip), %r9d
	imull	4488+arr(%rip), %r9d
	imull	4492+arr(%rip), %r9d
	imull	5200+arr(%rip), %r8d
	imull	5204+arr(%rip), %r8d
	imull	5208+arr(%rip), %r8d
	imull	5212+arr(%rip), %r8d
	imull	5216+arr(%rip), %r8d
	imull	5220+arr(%rip), %r8d
	imull	5224+arr(%rip), %r8d
	imull	5228+arr(%rip), %r8d
	imull	5232+arr(%rip), %r8d
	imull	5236+arr(%rip), %r8d
	imull	5240+arr(%rip), %r8d
	imull	5244+arr(%rip), %r8d
	imull	5248+arr(%rip), %r8d
	imull	5252+arr(%rip), %r8d
	imull	5256+arr(%rip), %r8d
	imull	5260+arr(%rip), %r8d
	imull	5264+arr(%rip), %r8d
	imull	5268+arr(%rip), %r8d
	imull	5272+arr(%rip), %r8d
	imull	5276+arr(%rip), %r8d
	imull	5280+arr(%rip), %r8d
	imull	5284+arr(%rip), %r8d
	imull	5288+arr(%rip), %r8d
	imull	5292+arr(%rip), %r8d
	imull	6000+arr(%rip), %ecx
	imull	6004+arr(%rip), %ecx
	imull	6008+arr(%rip), %ecx
	imull	6012+arr(%rip), %ecx
	imull	6016+arr(%rip), %ecx
	imull	6020+arr(%rip), %ecx
	imull	6024+arr(%rip), %ecx
	imull	6028+arr(%rip), %ecx
	imull	6032+arr(%rip), %ecx
	imull	6036+arr(%rip), %ecx
	imull	6040+arr(%rip), %ecx
	imull	6044+arr(%rip), %ecx
	imull	6048+arr(%rip), %ecx
	imull	6052+arr(%rip), %ecx
	imull	6056+arr(%rip), %ecx
	imull	6060+arr(%rip), %ecx
	imull	6064+arr(%rip), %ecx
	imull	6068+arr(%rip), %ecx
	imull	6072+arr(%rip), %ecx
	imull	6076+arr(%rip), %ecx
	imull	6080+arr(%rip), %ecx
	imull	6084+arr(%rip), %ecx
	imull	6088+arr(%rip), %ecx
	imull	6092+arr(%rip), %ecx
	imull	6800+arr(%rip), %edx
	imull	6804+arr(%rip), %edx
	imull	6808+arr(%rip), %edx
	imull	6812+arr(%rip), %edx
	imull	6816+arr(%rip), %edx
	imull	6820+arr(%rip), %edx
	imull	6824+arr(%rip), %edx
	imull	6828+arr(%rip), %edx
	imull	6832+arr(%rip), %edx
	imull	6836+arr(%rip), %edx
	imull	6840+arr(%rip), %edx
	imull	6844+arr(%rip), %edx
	imull	6848+arr(%rip), %edx
	imull	6852+arr(%rip), %edx
	imull	6856+arr(%rip), %edx
	imull	6860+arr(%rip), %edx
	imull	6864+arr(%rip), %edx
	imull	6868+arr(%rip), %edx
	imull	6872+arr(%rip), %edx
	imull	6876+arr(%rip), %edx
	imull	6880+arr(%rip), %edx
	imull	6884+arr(%rip), %edx
	imull	6888+arr(%rip), %edx
	imull	6892+arr(%rip), %edx
	imull	7600+arr(%rip), %eax
	imull	7604+arr(%rip), %eax
	imull	7608+arr(%rip), %eax
	imull	7612+arr(%rip), %eax
	imull	7616+arr(%rip), %eax
	imull	7620+arr(%rip), %eax
	imull	7624+arr(%rip), %eax
	imull	7628+arr(%rip), %eax
	imull	7632+arr(%rip), %eax
	imull	7636+arr(%rip), %eax
	imull	7640+arr(%rip), %eax
	imull	7644+arr(%rip), %eax
	imull	7648+arr(%rip), %eax
	imull	7652+arr(%rip), %eax
	imull	7656+arr(%rip), %eax
	imull	7660+arr(%rip), %eax
	imull	7664+arr(%rip), %eax
	imull	7668+arr(%rip), %eax
	imull	7672+arr(%rip), %eax
	imull	7676+arr(%rip), %eax
	imull	7680+arr(%rip), %eax
	imull	7684+arr(%rip), %eax
	imull	7688+arr(%rip), %eax
	imull	7692+arr(%rip), %eax
	imull	400+arr(%rip), %r12d
	imull	404+arr(%rip), %r12d
	imull	408+arr(%rip), %r12d
	imull	412+arr(%rip), %r12d
	imull	416+arr(%rip), %r12d
	imull	420+arr(%rip), %r12d
	imull	424+arr(%rip), %r12d
	imull	428+arr(%rip), %r12d
	imull	432+arr(%rip), %r12d
	imull	436+arr(%rip), %r12d
	imull	440+arr(%rip), %r12d
	imull	444+arr(%rip), %r12d
	imull	448+arr(%rip), %r12d
	imull	452+arr(%rip), %r12d
	imull	456+arr(%rip), %r12d
	imull	460+arr(%rip), %r12d
	imull	464+arr(%rip), %r12d
	imull	468+arr(%rip), %r12d
	imull	472+arr(%rip), %r12d
	imull	476+arr(%rip), %r12d
	imull	480+arr(%rip), %r12d
	imull	484+arr(%rip), %r12d
	imull	488+arr(%rip), %r12d
	imull	492+arr(%rip), %r12d
	imull	496+arr(%rip), %r12d
	imull	1296+arr(%rip), %ebp
	imull	2096+arr(%rip), %edi
	imull	2896+arr(%rip), %r11d
	imull	3696+arr(%rip), %r10d
	imull	4496+arr(%rip), %r9d
	imull	5296+arr(%rip), %r8d
	imull	6096+arr(%rip), %ecx
	imull	6896+arr(%rip), %edx
	imull	7696+arr(%rip), %eax
	imull	1300+arr(%rip), %ebp
	imull	1304+arr(%rip), %ebp
	imull	1308+arr(%rip), %ebp
	imull	1312+arr(%rip), %ebp
	imull	1316+arr(%rip), %ebp
	imull	1320+arr(%rip), %ebp
	imull	1324+arr(%rip), %ebp
	imull	1328+arr(%rip), %ebp
	imull	1332+arr(%rip), %ebp
	imull	1336+arr(%rip), %ebp
	imull	1340+arr(%rip), %ebp
	imull	1344+arr(%rip), %ebp
	imull	1348+arr(%rip), %ebp
	imull	1352+arr(%rip), %ebp
	imull	1356+arr(%rip), %ebp
	imull	1360+arr(%rip), %ebp
	imull	1364+arr(%rip), %ebp
	imull	1368+arr(%rip), %ebp
	imull	1372+arr(%rip), %ebp
	imull	1376+arr(%rip), %ebp
	imull	1380+arr(%rip), %ebp
	imull	1384+arr(%rip), %ebp
	imull	1388+arr(%rip), %ebp
	imull	1392+arr(%rip), %ebp
	imull	2100+arr(%rip), %edi
	imull	2104+arr(%rip), %edi
	imull	2108+arr(%rip), %edi
	imull	2112+arr(%rip), %edi
	imull	2116+arr(%rip), %edi
	imull	2120+arr(%rip), %edi
	imull	2124+arr(%rip), %edi
	imull	2128+arr(%rip), %edi
	imull	2132+arr(%rip), %edi
	imull	2136+arr(%rip), %edi
	imull	2140+arr(%rip), %edi
	imull	2144+arr(%rip), %edi
	imull	2148+arr(%rip), %edi
	imull	2152+arr(%rip), %edi
	imull	2156+arr(%rip), %edi
	imull	2160+arr(%rip), %edi
	imull	2164+arr(%rip), %edi
	imull	2168+arr(%rip), %edi
	imull	2172+arr(%rip), %edi
	imull	2176+arr(%rip), %edi
	imull	2180+arr(%rip), %edi
	imull	2184+arr(%rip), %edi
	imull	2188+arr(%rip), %edi
	imull	2192+arr(%rip), %edi
	imull	2900+arr(%rip), %r11d
	imull	2904+arr(%rip), %r11d
	imull	2908+arr(%rip), %r11d
	imull	2912+arr(%rip), %r11d
	imull	2916+arr(%rip), %r11d
	imull	2920+arr(%rip), %r11d
	imull	2924+arr(%rip), %r11d
	imull	2928+arr(%rip), %r11d
	imull	2932+arr(%rip), %r11d
	imull	2936+arr(%rip), %r11d
	imull	2940+arr(%rip), %r11d
	imull	2944+arr(%rip), %r11d
	imull	2948+arr(%rip), %r11d
	imull	2952+arr(%rip), %r11d
	imull	2956+arr(%rip), %r11d
	imull	2960+arr(%rip), %r11d
	imull	2964+arr(%rip), %r11d
	imull	2968+arr(%rip), %r11d
	imull	2972+arr(%rip), %r11d
	imull	2976+arr(%rip), %r11d
	imull	2980+arr(%rip), %r11d
	imull	2984+arr(%rip), %r11d
	imull	2988+arr(%rip), %r11d
	imull	2992+arr(%rip), %r11d
	imull	3700+arr(%rip), %r10d
	imull	3704+arr(%rip), %r10d
	imull	3708+arr(%rip), %r10d
	imull	3712+arr(%rip), %r10d
	imull	3716+arr(%rip), %r10d
	imull	3720+arr(%rip), %r10d
	imull	3724+arr(%rip), %r10d
	imull	3728+arr(%rip), %r10d
	imull	3732+arr(%rip), %r10d
	imull	3736+arr(%rip), %r10d
	imull	3740+arr(%rip), %r10d
	imull	3744+arr(%rip), %r10d
	imull	3748+arr(%rip), %r10d
	imull	3752+arr(%rip), %r10d
	imull	3756+arr(%rip), %r10d
	imull	3760+arr(%rip), %r10d
	imull	3764+arr(%rip), %r10d
	imull	3768+arr(%rip), %r10d
	imull	3772+arr(%rip), %r10d
	imull	3776+arr(%rip), %r10d
	imull	3780+arr(%rip), %r10d
	imull	3784+arr(%rip), %r10d
	imull	3788+arr(%rip), %r10d
	imull	3792+arr(%rip), %r10d
	imull	4500+arr(%rip), %r9d
	imull	4504+arr(%rip), %r9d
	imull	4508+arr(%rip), %r9d
	imull	4512+arr(%rip), %r9d
	imull	4516+arr(%rip), %r9d
	imull	4520+arr(%rip), %r9d
	imull	4524+arr(%rip), %r9d
	imull	4528+arr(%rip), %r9d
	imull	4532+arr(%rip), %r9d
	imull	4536+arr(%rip), %r9d
	imull	4540+arr(%rip), %r9d
	imull	4544+arr(%rip), %r9d
	imull	4548+arr(%rip), %r9d
	imull	4552+arr(%rip), %r9d
	imull	4556+arr(%rip), %r9d
	imull	4560+arr(%rip), %r9d
	imull	4564+arr(%rip), %r9d
	imull	4568+arr(%rip), %r9d
	imull	4572+arr(%rip), %r9d
	imull	4576+arr(%rip), %r9d
	imull	4580+arr(%rip), %r9d
	imull	4584+arr(%rip), %r9d
	imull	4588+arr(%rip), %r9d
	imull	4592+arr(%rip), %r9d
	imull	5300+arr(%rip), %r8d
	imull	5304+arr(%rip), %r8d
	imull	5308+arr(%rip), %r8d
	imull	5312+arr(%rip), %r8d
	imull	5316+arr(%rip), %r8d
	imull	5320+arr(%rip), %r8d
	imull	5324+arr(%rip), %r8d
	imull	5328+arr(%rip), %r8d
	imull	5332+arr(%rip), %r8d
	imull	5336+arr(%rip), %r8d
	imull	5340+arr(%rip), %r8d
	imull	5344+arr(%rip), %r8d
	imull	5348+arr(%rip), %r8d
	imull	5352+arr(%rip), %r8d
	imull	5356+arr(%rip), %r8d
	imull	5360+arr(%rip), %r8d
	imull	5364+arr(%rip), %r8d
	imull	5368+arr(%rip), %r8d
	imull	5372+arr(%rip), %r8d
	imull	5376+arr(%rip), %r8d
	imull	5380+arr(%rip), %r8d
	imull	5384+arr(%rip), %r8d
	imull	5388+arr(%rip), %r8d
	imull	5392+arr(%rip), %r8d
	imull	6100+arr(%rip), %ecx
	imull	6104+arr(%rip), %ecx
	imull	6108+arr(%rip), %ecx
	imull	6112+arr(%rip), %ecx
	imull	6116+arr(%rip), %ecx
	imull	6120+arr(%rip), %ecx
	imull	6124+arr(%rip), %ecx
	imull	6128+arr(%rip), %ecx
	imull	6132+arr(%rip), %ecx
	imull	6136+arr(%rip), %ecx
	imull	6140+arr(%rip), %ecx
	imull	6144+arr(%rip), %ecx
	imull	6148+arr(%rip), %ecx
	imull	6152+arr(%rip), %ecx
	imull	6156+arr(%rip), %ecx
	imull	6160+arr(%rip), %ecx
	imull	6164+arr(%rip), %ecx
	imull	6168+arr(%rip), %ecx
	imull	6172+arr(%rip), %ecx
	imull	6176+arr(%rip), %ecx
	imull	6180+arr(%rip), %ecx
	imull	6184+arr(%rip), %ecx
	imull	6188+arr(%rip), %ecx
	imull	6192+arr(%rip), %ecx
	imull	6900+arr(%rip), %edx
	imull	6904+arr(%rip), %edx
	imull	6908+arr(%rip), %edx
	imull	6912+arr(%rip), %edx
	imull	6916+arr(%rip), %edx
	imull	6920+arr(%rip), %edx
	imull	6924+arr(%rip), %edx
	imull	6928+arr(%rip), %edx
	imull	6932+arr(%rip), %edx
	imull	6936+arr(%rip), %edx
	imull	6940+arr(%rip), %edx
	imull	6944+arr(%rip), %edx
	imull	6948+arr(%rip), %edx
	imull	6952+arr(%rip), %edx
	imull	6956+arr(%rip), %edx
	imull	6960+arr(%rip), %edx
	imull	6964+arr(%rip), %edx
	imull	6968+arr(%rip), %edx
	imull	6972+arr(%rip), %edx
	imull	6976+arr(%rip), %edx
	imull	6980+arr(%rip), %edx
	imull	6984+arr(%rip), %edx
	imull	6988+arr(%rip), %edx
	imull	6992+arr(%rip), %edx
	imull	7700+arr(%rip), %eax
	imull	7704+arr(%rip), %eax
	imull	7708+arr(%rip), %eax
	imull	7712+arr(%rip), %eax
	imull	7716+arr(%rip), %eax
	imull	7720+arr(%rip), %eax
	imull	7724+arr(%rip), %eax
	imull	7728+arr(%rip), %eax
	imull	7732+arr(%rip), %eax
	imull	7736+arr(%rip), %eax
	imull	7740+arr(%rip), %eax
	imull	7744+arr(%rip), %eax
	imull	7748+arr(%rip), %eax
	imull	7752+arr(%rip), %eax
	imull	7756+arr(%rip), %eax
	imull	7760+arr(%rip), %eax
	imull	7764+arr(%rip), %eax
	imull	7768+arr(%rip), %eax
	imull	7772+arr(%rip), %eax
	imull	7776+arr(%rip), %eax
	imull	7780+arr(%rip), %eax
	imull	7784+arr(%rip), %eax
	imull	7788+arr(%rip), %eax
	imull	7792+arr(%rip), %eax
	imull	500+arr(%rip), %r12d
	imull	504+arr(%rip), %r12d
	imull	508+arr(%rip), %r12d
	imull	512+arr(%rip), %r12d
	imull	516+arr(%rip), %r12d
	imull	520+arr(%rip), %r12d
	imull	524+arr(%rip), %r12d
	imull	528+arr(%rip), %r12d
	imull	532+arr(%rip), %r12d
	imull	536+arr(%rip), %r12d
	imull	540+arr(%rip), %r12d
	imull	544+arr(%rip), %r12d
	imull	548+arr(%rip), %r12d
	imull	552+arr(%rip), %r12d
	imull	556+arr(%rip), %r12d
	imull	560+arr(%rip), %r12d
	imull	564+arr(%rip), %r12d
	imull	568+arr(%rip), %r12d
	imull	572+arr(%rip), %r12d
	imull	576+arr(%rip), %r12d
	imull	580+arr(%rip), %r12d
	imull	584+arr(%rip), %r12d
	imull	588+arr(%rip), %r12d
	imull	592+arr(%rip), %r12d
	imull	596+arr(%rip), %r12d
	imull	1396+arr(%rip), %ebp
	imull	2196+arr(%rip), %edi
	imull	2996+arr(%rip), %r11d
	imull	3796+arr(%rip), %r10d
	imull	4596+arr(%rip), %r9d
	imull	5396+arr(%rip), %r8d
	imull	6196+arr(%rip), %ecx
	imull	6996+arr(%rip), %edx
	imull	7796+arr(%rip), %eax
	imull	1400+arr(%rip), %ebp
	imull	1404+arr(%rip), %ebp
	imull	1408+arr(%rip), %ebp
	imull	1412+arr(%rip), %ebp
	imull	1416+arr(%rip), %ebp
	imull	1420+arr(%rip), %ebp
	imull	1424+arr(%rip), %ebp
	imull	1428+arr(%rip), %ebp
	imull	1432+arr(%rip), %ebp
	imull	1436+arr(%rip), %ebp
	imull	1440+arr(%rip), %ebp
	imull	1444+arr(%rip), %ebp
	imull	1448+arr(%rip), %ebp
	imull	1452+arr(%rip), %ebp
	imull	1456+arr(%rip), %ebp
	imull	1460+arr(%rip), %ebp
	imull	1464+arr(%rip), %ebp
	imull	1468+arr(%rip), %ebp
	imull	1472+arr(%rip), %ebp
	imull	1476+arr(%rip), %ebp
	imull	1480+arr(%rip), %ebp
	imull	1484+arr(%rip), %ebp
	imull	1488+arr(%rip), %ebp
	imull	1492+arr(%rip), %ebp
	imull	2200+arr(%rip), %edi
	imull	2204+arr(%rip), %edi
	imull	2208+arr(%rip), %edi
	imull	2212+arr(%rip), %edi
	imull	2216+arr(%rip), %edi
	imull	2220+arr(%rip), %edi
	imull	2224+arr(%rip), %edi
	imull	2228+arr(%rip), %edi
	imull	2232+arr(%rip), %edi
	imull	2236+arr(%rip), %edi
	imull	2240+arr(%rip), %edi
	imull	2244+arr(%rip), %edi
	imull	2248+arr(%rip), %edi
	imull	2252+arr(%rip), %edi
	imull	2256+arr(%rip), %edi
	imull	2260+arr(%rip), %edi
	imull	2264+arr(%rip), %edi
	imull	2268+arr(%rip), %edi
	imull	2272+arr(%rip), %edi
	imull	2276+arr(%rip), %edi
	imull	2280+arr(%rip), %edi
	imull	2284+arr(%rip), %edi
	imull	2288+arr(%rip), %edi
	imull	2292+arr(%rip), %edi
	imull	3000+arr(%rip), %r11d
	imull	3004+arr(%rip), %r11d
	imull	3008+arr(%rip), %r11d
	imull	3012+arr(%rip), %r11d
	imull	3016+arr(%rip), %r11d
	imull	3020+arr(%rip), %r11d
	imull	3024+arr(%rip), %r11d
	imull	3028+arr(%rip), %r11d
	imull	3032+arr(%rip), %r11d
	imull	3036+arr(%rip), %r11d
	imull	3040+arr(%rip), %r11d
	imull	3044+arr(%rip), %r11d
	imull	3048+arr(%rip), %r11d
	imull	3052+arr(%rip), %r11d
	imull	3056+arr(%rip), %r11d
	imull	3060+arr(%rip), %r11d
	imull	3064+arr(%rip), %r11d
	imull	3068+arr(%rip), %r11d
	imull	3072+arr(%rip), %r11d
	imull	3076+arr(%rip), %r11d
	imull	3080+arr(%rip), %r11d
	imull	3084+arr(%rip), %r11d
	imull	3088+arr(%rip), %r11d
	imull	3092+arr(%rip), %r11d
	imull	3800+arr(%rip), %r10d
	imull	3804+arr(%rip), %r10d
	imull	3808+arr(%rip), %r10d
	imull	3812+arr(%rip), %r10d
	imull	3816+arr(%rip), %r10d
	imull	3820+arr(%rip), %r10d
	imull	3824+arr(%rip), %r10d
	imull	3828+arr(%rip), %r10d
	imull	3832+arr(%rip), %r10d
	imull	3836+arr(%rip), %r10d
	imull	3840+arr(%rip), %r10d
	imull	3844+arr(%rip), %r10d
	imull	3848+arr(%rip), %r10d
	imull	3852+arr(%rip), %r10d
	imull	3856+arr(%rip), %r10d
	imull	3860+arr(%rip), %r10d
	imull	3864+arr(%rip), %r10d
	imull	3868+arr(%rip), %r10d
	imull	3872+arr(%rip), %r10d
	imull	3876+arr(%rip), %r10d
	imull	3880+arr(%rip), %r10d
	imull	3884+arr(%rip), %r10d
	imull	3888+arr(%rip), %r10d
	imull	3892+arr(%rip), %r10d
	imull	4600+arr(%rip), %r9d
	imull	4604+arr(%rip), %r9d
	imull	4608+arr(%rip), %r9d
	imull	4612+arr(%rip), %r9d
	imull	4616+arr(%rip), %r9d
	imull	4620+arr(%rip), %r9d
	imull	4624+arr(%rip), %r9d
	imull	4628+arr(%rip), %r9d
	imull	4632+arr(%rip), %r9d
	imull	4636+arr(%rip), %r9d
	imull	4640+arr(%rip), %r9d
	imull	4644+arr(%rip), %r9d
	imull	4648+arr(%rip), %r9d
	imull	4652+arr(%rip), %r9d
	imull	4656+arr(%rip), %r9d
	imull	4660+arr(%rip), %r9d
	imull	4664+arr(%rip), %r9d
	imull	4668+arr(%rip), %r9d
	imull	4672+arr(%rip), %r9d
	imull	4676+arr(%rip), %r9d
	imull	4680+arr(%rip), %r9d
	imull	4684+arr(%rip), %r9d
	imull	4688+arr(%rip), %r9d
	imull	4692+arr(%rip), %r9d
	imull	5400+arr(%rip), %r8d
	imull	5404+arr(%rip), %r8d
	imull	5408+arr(%rip), %r8d
	imull	5412+arr(%rip), %r8d
	imull	5416+arr(%rip), %r8d
	imull	5420+arr(%rip), %r8d
	imull	5424+arr(%rip), %r8d
	imull	5428+arr(%rip), %r8d
	imull	5432+arr(%rip), %r8d
	imull	5436+arr(%rip), %r8d
	imull	5440+arr(%rip), %r8d
	imull	5444+arr(%rip), %r8d
	imull	5448+arr(%rip), %r8d
	imull	5452+arr(%rip), %r8d
	imull	5456+arr(%rip), %r8d
	imull	5460+arr(%rip), %r8d
	imull	5464+arr(%rip), %r8d
	imull	5468+arr(%rip), %r8d
	imull	5472+arr(%rip), %r8d
	imull	5476+arr(%rip), %r8d
	imull	5480+arr(%rip), %r8d
	imull	5484+arr(%rip), %r8d
	imull	5488+arr(%rip), %r8d
	imull	5492+arr(%rip), %r8d
	imull	6200+arr(%rip), %ecx
	imull	6204+arr(%rip), %ecx
	imull	6208+arr(%rip), %ecx
	imull	6212+arr(%rip), %ecx
	imull	6216+arr(%rip), %ecx
	imull	6220+arr(%rip), %ecx
	imull	6224+arr(%rip), %ecx
	imull	6228+arr(%rip), %ecx
	imull	6232+arr(%rip), %ecx
	imull	6236+arr(%rip), %ecx
	imull	6240+arr(%rip), %ecx
	imull	6244+arr(%rip), %ecx
	imull	6248+arr(%rip), %ecx
	imull	6252+arr(%rip), %ecx
	imull	6256+arr(%rip), %ecx
	imull	6260+arr(%rip), %ecx
	imull	6264+arr(%rip), %ecx
	imull	6268+arr(%rip), %ecx
	imull	6272+arr(%rip), %ecx
	imull	6276+arr(%rip), %ecx
	imull	6280+arr(%rip), %ecx
	imull	6284+arr(%rip), %ecx
	imull	6288+arr(%rip), %ecx
	imull	6292+arr(%rip), %ecx
	imull	7000+arr(%rip), %edx
	imull	7004+arr(%rip), %edx
	imull	7008+arr(%rip), %edx
	imull	7012+arr(%rip), %edx
	imull	7016+arr(%rip), %edx
	imull	7020+arr(%rip), %edx
	imull	7024+arr(%rip), %edx
	imull	7028+arr(%rip), %edx
	imull	7032+arr(%rip), %edx
	imull	7036+arr(%rip), %edx
	imull	7040+arr(%rip), %edx
	imull	7044+arr(%rip), %edx
	imull	7048+arr(%rip), %edx
	imull	7052+arr(%rip), %edx
	imull	7056+arr(%rip), %edx
	imull	7060+arr(%rip), %edx
	imull	7064+arr(%rip), %edx
	imull	7068+arr(%rip), %edx
	imull	7072+arr(%rip), %edx
	imull	7076+arr(%rip), %edx
	imull	7080+arr(%rip), %edx
	imull	7084+arr(%rip), %edx
	imull	7088+arr(%rip), %edx
	imull	7092+arr(%rip), %edx
	imull	7800+arr(%rip), %eax
	imull	7804+arr(%rip), %eax
	imull	7808+arr(%rip), %eax
	imull	7812+arr(%rip), %eax
	imull	7816+arr(%rip), %eax
	imull	7820+arr(%rip), %eax
	imull	7824+arr(%rip), %eax
	imull	7828+arr(%rip), %eax
	imull	7832+arr(%rip), %eax
	imull	7836+arr(%rip), %eax
	imull	7840+arr(%rip), %eax
	imull	7844+arr(%rip), %eax
	imull	7848+arr(%rip), %eax
	imull	7852+arr(%rip), %eax
	imull	7856+arr(%rip), %eax
	imull	7860+arr(%rip), %eax
	imull	7864+arr(%rip), %eax
	imull	7868+arr(%rip), %eax
	imull	7872+arr(%rip), %eax
	imull	7876+arr(%rip), %eax
	imull	7880+arr(%rip), %eax
	imull	7884+arr(%rip), %eax
	imull	7888+arr(%rip), %eax
	imull	7892+arr(%rip), %eax
	imull	600+arr(%rip), %r12d
	imull	604+arr(%rip), %r12d
	imull	608+arr(%rip), %r12d
	imull	612+arr(%rip), %r12d
	imull	616+arr(%rip), %r12d
	imull	620+arr(%rip), %r12d
	imull	624+arr(%rip), %r12d
	imull	628+arr(%rip), %r12d
	imull	632+arr(%rip), %r12d
	imull	636+arr(%rip), %r12d
	imull	640+arr(%rip), %r12d
	imull	644+arr(%rip), %r12d
	imull	648+arr(%rip), %r12d
	imull	652+arr(%rip), %r12d
	imull	656+arr(%rip), %r12d
	imull	660+arr(%rip), %r12d
	imull	664+arr(%rip), %r12d
	imull	668+arr(%rip), %r12d
	imull	672+arr(%rip), %r12d
	imull	676+arr(%rip), %r12d
	imull	680+arr(%rip), %r12d
	imull	684+arr(%rip), %r12d
	imull	688+arr(%rip), %r12d
	imull	692+arr(%rip), %r12d
	imull	696+arr(%rip), %r12d
	imull	1496+arr(%rip), %ebp
	imull	2296+arr(%rip), %edi
	imull	3096+arr(%rip), %r11d
	imull	3896+arr(%rip), %r10d
	imull	4696+arr(%rip), %r9d
	imull	5496+arr(%rip), %r8d
	imull	6296+arr(%rip), %ecx
	imull	7096+arr(%rip), %edx
	imull	7896+arr(%rip), %eax
	imull	1500+arr(%rip), %ebp
	imull	1504+arr(%rip), %ebp
	imull	1508+arr(%rip), %ebp
	imull	1512+arr(%rip), %ebp
	imull	1516+arr(%rip), %ebp
	imull	1520+arr(%rip), %ebp
	imull	1524+arr(%rip), %ebp
	imull	1528+arr(%rip), %ebp
	imull	1532+arr(%rip), %ebp
	imull	1536+arr(%rip), %ebp
	imull	1540+arr(%rip), %ebp
	imull	1544+arr(%rip), %ebp
	imull	1548+arr(%rip), %ebp
	imull	1552+arr(%rip), %ebp
	imull	1556+arr(%rip), %ebp
	imull	1560+arr(%rip), %ebp
	imull	1564+arr(%rip), %ebp
	imull	1568+arr(%rip), %ebp
	imull	1572+arr(%rip), %ebp
	imull	1576+arr(%rip), %ebp
	imull	1580+arr(%rip), %ebp
	imull	1584+arr(%rip), %ebp
	imull	1588+arr(%rip), %ebp
	imull	1592+arr(%rip), %ebp
	imull	2300+arr(%rip), %edi
	imull	2304+arr(%rip), %edi
	imull	2308+arr(%rip), %edi
	imull	2312+arr(%rip), %edi
	imull	2316+arr(%rip), %edi
	imull	2320+arr(%rip), %edi
	imull	2324+arr(%rip), %edi
	imull	2328+arr(%rip), %edi
	imull	2332+arr(%rip), %edi
	imull	2336+arr(%rip), %edi
	imull	2340+arr(%rip), %edi
	imull	2344+arr(%rip), %edi
	imull	2348+arr(%rip), %edi
	imull	2352+arr(%rip), %edi
	imull	2356+arr(%rip), %edi
	imull	2360+arr(%rip), %edi
	imull	2364+arr(%rip), %edi
	imull	2368+arr(%rip), %edi
	imull	2372+arr(%rip), %edi
	imull	2376+arr(%rip), %edi
	imull	2380+arr(%rip), %edi
	imull	2384+arr(%rip), %edi
	imull	2388+arr(%rip), %edi
	imull	2392+arr(%rip), %edi
	imull	3100+arr(%rip), %r11d
	imull	3104+arr(%rip), %r11d
	imull	3108+arr(%rip), %r11d
	imull	3112+arr(%rip), %r11d
	imull	3116+arr(%rip), %r11d
	imull	3120+arr(%rip), %r11d
	imull	3124+arr(%rip), %r11d
	imull	3128+arr(%rip), %r11d
	imull	3132+arr(%rip), %r11d
	imull	3136+arr(%rip), %r11d
	imull	3140+arr(%rip), %r11d
	imull	3144+arr(%rip), %r11d
	imull	3148+arr(%rip), %r11d
	imull	3152+arr(%rip), %r11d
	imull	3156+arr(%rip), %r11d
	imull	3160+arr(%rip), %r11d
	imull	3164+arr(%rip), %r11d
	imull	3168+arr(%rip), %r11d
	imull	3172+arr(%rip), %r11d
	imull	3176+arr(%rip), %r11d
	imull	3180+arr(%rip), %r11d
	imull	3184+arr(%rip), %r11d
	imull	3188+arr(%rip), %r11d
	imull	3192+arr(%rip), %r11d
	imull	3900+arr(%rip), %r10d
	imull	3904+arr(%rip), %r10d
	imull	3908+arr(%rip), %r10d
	imull	3912+arr(%rip), %r10d
	imull	3916+arr(%rip), %r10d
	imull	3920+arr(%rip), %r10d
	imull	3924+arr(%rip), %r10d
	imull	3928+arr(%rip), %r10d
	imull	3932+arr(%rip), %r10d
	imull	3936+arr(%rip), %r10d
	imull	3940+arr(%rip), %r10d
	imull	3944+arr(%rip), %r10d
	imull	3948+arr(%rip), %r10d
	imull	3952+arr(%rip), %r10d
	imull	3956+arr(%rip), %r10d
	imull	3960+arr(%rip), %r10d
	imull	3964+arr(%rip), %r10d
	imull	3968+arr(%rip), %r10d
	imull	3972+arr(%rip), %r10d
	imull	3976+arr(%rip), %r10d
	imull	3980+arr(%rip), %r10d
	imull	3984+arr(%rip), %r10d
	imull	3988+arr(%rip), %r10d
	imull	3992+arr(%rip), %r10d
	imull	4700+arr(%rip), %r9d
	imull	4704+arr(%rip), %r9d
	imull	4708+arr(%rip), %r9d
	imull	4712+arr(%rip), %r9d
	imull	4716+arr(%rip), %r9d
	imull	4720+arr(%rip), %r9d
	imull	4724+arr(%rip), %r9d
	imull	4728+arr(%rip), %r9d
	imull	4732+arr(%rip), %r9d
	imull	4736+arr(%rip), %r9d
	imull	4740+arr(%rip), %r9d
	imull	4744+arr(%rip), %r9d
	imull	4748+arr(%rip), %r9d
	imull	4752+arr(%rip), %r9d
	imull	4756+arr(%rip), %r9d
	imull	4760+arr(%rip), %r9d
	imull	4764+arr(%rip), %r9d
	imull	4768+arr(%rip), %r9d
	imull	4772+arr(%rip), %r9d
	imull	4776+arr(%rip), %r9d
	imull	4780+arr(%rip), %r9d
	imull	4784+arr(%rip), %r9d
	imull	4788+arr(%rip), %r9d
	imull	4792+arr(%rip), %r9d
	imull	5500+arr(%rip), %r8d
	imull	5504+arr(%rip), %r8d
	imull	5508+arr(%rip), %r8d
	imull	5512+arr(%rip), %r8d
	imull	5516+arr(%rip), %r8d
	imull	5520+arr(%rip), %r8d
	imull	5524+arr(%rip), %r8d
	imull	5528+arr(%rip), %r8d
	imull	5532+arr(%rip), %r8d
	imull	5536+arr(%rip), %r8d
	imull	5540+arr(%rip), %r8d
	imull	5544+arr(%rip), %r8d
	imull	5548+arr(%rip), %r8d
	imull	5552+arr(%rip), %r8d
	imull	5556+arr(%rip), %r8d
	imull	5560+arr(%rip), %r8d
	imull	5564+arr(%rip), %r8d
	imull	5568+arr(%rip), %r8d
	imull	5572+arr(%rip), %r8d
	imull	5576+arr(%rip), %r8d
	imull	5580+arr(%rip), %r8d
	imull	5584+arr(%rip), %r8d
	imull	5588+arr(%rip), %r8d
	imull	5592+arr(%rip), %r8d
	imull	6300+arr(%rip), %ecx
	imull	6304+arr(%rip), %ecx
	imull	6308+arr(%rip), %ecx
	imull	6312+arr(%rip), %ecx
	imull	6316+arr(%rip), %ecx
	imull	6320+arr(%rip), %ecx
	imull	6324+arr(%rip), %ecx
	imull	6328+arr(%rip), %ecx
	imull	6332+arr(%rip), %ecx
	imull	6336+arr(%rip), %ecx
	imull	6340+arr(%rip), %ecx
	imull	6344+arr(%rip), %ecx
	imull	6348+arr(%rip), %ecx
	imull	6352+arr(%rip), %ecx
	imull	6356+arr(%rip), %ecx
	imull	6360+arr(%rip), %ecx
	imull	6364+arr(%rip), %ecx
	imull	6368+arr(%rip), %ecx
	imull	6372+arr(%rip), %ecx
	imull	6376+arr(%rip), %ecx
	imull	6380+arr(%rip), %ecx
	imull	6384+arr(%rip), %ecx
	imull	6388+arr(%rip), %ecx
	imull	6392+arr(%rip), %ecx
	imull	7100+arr(%rip), %edx
	imull	7104+arr(%rip), %edx
	imull	7108+arr(%rip), %edx
	imull	7112+arr(%rip), %edx
	imull	7116+arr(%rip), %edx
	imull	7120+arr(%rip), %edx
	imull	7124+arr(%rip), %edx
	imull	7128+arr(%rip), %edx
	imull	7132+arr(%rip), %edx
	imull	7136+arr(%rip), %edx
	imull	7140+arr(%rip), %edx
	imull	7144+arr(%rip), %edx
	imull	7148+arr(%rip), %edx
	imull	7152+arr(%rip), %edx
	imull	7156+arr(%rip), %edx
	imull	7160+arr(%rip), %edx
	imull	7164+arr(%rip), %edx
	imull	7168+arr(%rip), %edx
	imull	7172+arr(%rip), %edx
	imull	7176+arr(%rip), %edx
	imull	7180+arr(%rip), %edx
	imull	7184+arr(%rip), %edx
	imull	7188+arr(%rip), %edx
	imull	7192+arr(%rip), %edx
	imull	7900+arr(%rip), %eax
	imull	7904+arr(%rip), %eax
	imull	7908+arr(%rip), %eax
	imull	7912+arr(%rip), %eax
	imull	7916+arr(%rip), %eax
	imull	7920+arr(%rip), %eax
	imull	7924+arr(%rip), %eax
	imull	7928+arr(%rip), %eax
	imull	7932+arr(%rip), %eax
	imull	7936+arr(%rip), %eax
	imull	7940+arr(%rip), %eax
	imull	7944+arr(%rip), %eax
	imull	7948+arr(%rip), %eax
	imull	7952+arr(%rip), %eax
	imull	7956+arr(%rip), %eax
	imull	7960+arr(%rip), %eax
	imull	7964+arr(%rip), %eax
	imull	7968+arr(%rip), %eax
	imull	7972+arr(%rip), %eax
	imull	7976+arr(%rip), %eax
	imull	7980+arr(%rip), %eax
	imull	7984+arr(%rip), %eax
	imull	7988+arr(%rip), %eax
	imull	7992+arr(%rip), %eax
	imull	700+arr(%rip), %r12d
	imull	704+arr(%rip), %r12d
	imull	708+arr(%rip), %r12d
	imull	712+arr(%rip), %r12d
	imull	716+arr(%rip), %r12d
	imull	720+arr(%rip), %r12d
	imull	724+arr(%rip), %r12d
	imull	728+arr(%rip), %r12d
	imull	732+arr(%rip), %r12d
	imull	736+arr(%rip), %r12d
	imull	740+arr(%rip), %r12d
	imull	744+arr(%rip), %r12d
	imull	748+arr(%rip), %r12d
	imull	752+arr(%rip), %r12d
	imull	756+arr(%rip), %r12d
	imull	760+arr(%rip), %r12d
	imull	764+arr(%rip), %r12d
	imull	768+arr(%rip), %r12d
	imull	772+arr(%rip), %r12d
	imull	776+arr(%rip), %r12d
	imull	780+arr(%rip), %r12d
	imull	784+arr(%rip), %r12d
	imull	788+arr(%rip), %r12d
	imull	792+arr(%rip), %r12d
	imull	796+arr(%rip), %r12d
	imull	1596+arr(%rip), %ebp
	imull	2396+arr(%rip), %edi
	imull	3196+arr(%rip), %r11d
	imull	3996+arr(%rip), %r10d
	imull	4796+arr(%rip), %r9d
	imull	5596+arr(%rip), %r8d
	imull	6396+arr(%rip), %ecx
	imull	7196+arr(%rip), %edx
	imull	7996+arr(%rip), %eax
	imull	800+arr(%rip), %ebp
	imull	804+arr(%rip), %ebp
	imull	808+arr(%rip), %ebp
	imull	812+arr(%rip), %ebp
	imull	816+arr(%rip), %ebp
	imull	820+arr(%rip), %ebp
	imull	824+arr(%rip), %ebp
	imull	828+arr(%rip), %ebp
	imull	832+arr(%rip), %ebp
	imull	836+arr(%rip), %ebp
	imull	840+arr(%rip), %ebp
	imull	844+arr(%rip), %ebp
	imull	848+arr(%rip), %ebp
	imull	852+arr(%rip), %ebp
	imull	856+arr(%rip), %ebp
	imull	860+arr(%rip), %ebp
	imull	864+arr(%rip), %ebp
	imull	868+arr(%rip), %ebp
	imull	872+arr(%rip), %ebp
	imull	876+arr(%rip), %ebp
	imull	880+arr(%rip), %ebp
	imull	884+arr(%rip), %ebp
	imull	888+arr(%rip), %ebp
	imull	892+arr(%rip), %ebp
	imull	1600+arr(%rip), %edi
	imull	1604+arr(%rip), %edi
	imull	1608+arr(%rip), %edi
	imull	1612+arr(%rip), %edi
	imull	1616+arr(%rip), %edi
	imull	1620+arr(%rip), %edi
	imull	1624+arr(%rip), %edi
	imull	1628+arr(%rip), %edi
	imull	1632+arr(%rip), %edi
	imull	1636+arr(%rip), %edi
	imull	1640+arr(%rip), %edi
	imull	1644+arr(%rip), %edi
	imull	1648+arr(%rip), %edi
	imull	1652+arr(%rip), %edi
	imull	1656+arr(%rip), %edi
	imull	1660+arr(%rip), %edi
	imull	1664+arr(%rip), %edi
	imull	1668+arr(%rip), %edi
	imull	1672+arr(%rip), %edi
	imull	1676+arr(%rip), %edi
	imull	1680+arr(%rip), %edi
	imull	1684+arr(%rip), %edi
	imull	1688+arr(%rip), %edi
	imull	1692+arr(%rip), %edi
	imull	2400+arr(%rip), %r11d
	imull	2404+arr(%rip), %r11d
	imull	2408+arr(%rip), %r11d
	imull	2412+arr(%rip), %r11d
	imull	2416+arr(%rip), %r11d
	imull	2420+arr(%rip), %r11d
	imull	2424+arr(%rip), %r11d
	imull	2428+arr(%rip), %r11d
	imull	2432+arr(%rip), %r11d
	imull	2436+arr(%rip), %r11d
	imull	2440+arr(%rip), %r11d
	imull	2444+arr(%rip), %r11d
	imull	2448+arr(%rip), %r11d
	imull	2452+arr(%rip), %r11d
	imull	2456+arr(%rip), %r11d
	imull	2460+arr(%rip), %r11d
	imull	2464+arr(%rip), %r11d
	imull	2468+arr(%rip), %r11d
	imull	2472+arr(%rip), %r11d
	imull	2476+arr(%rip), %r11d
	imull	2480+arr(%rip), %r11d
	imull	2484+arr(%rip), %r11d
	imull	2488+arr(%rip), %r11d
	imull	2492+arr(%rip), %r11d
	imull	3200+arr(%rip), %r10d
	imull	3204+arr(%rip), %r10d
	imull	3208+arr(%rip), %r10d
	imull	3212+arr(%rip), %r10d
	imull	3216+arr(%rip), %r10d
	imull	3220+arr(%rip), %r10d
	imull	3224+arr(%rip), %r10d
	imull	3228+arr(%rip), %r10d
	imull	3232+arr(%rip), %r10d
	imull	3236+arr(%rip), %r10d
	imull	3240+arr(%rip), %r10d
	imull	3244+arr(%rip), %r10d
	imull	3248+arr(%rip), %r10d
	imull	3252+arr(%rip), %r10d
	imull	3256+arr(%rip), %r10d
	imull	3260+arr(%rip), %r10d
	imull	3264+arr(%rip), %r10d
	imull	3268+arr(%rip), %r10d
	imull	3272+arr(%rip), %r10d
	imull	3276+arr(%rip), %r10d
	imull	3280+arr(%rip), %r10d
	imull	3284+arr(%rip), %r10d
	imull	3288+arr(%rip), %r10d
	imull	3292+arr(%rip), %r10d
	imull	4000+arr(%rip), %r9d
	imull	4004+arr(%rip), %r9d
	imull	4008+arr(%rip), %r9d
	imull	4012+arr(%rip), %r9d
	imull	4016+arr(%rip), %r9d
	imull	4020+arr(%rip), %r9d
	imull	4024+arr(%rip), %r9d
	imull	4028+arr(%rip), %r9d
	imull	4032+arr(%rip), %r9d
	imull	4036+arr(%rip), %r9d
	imull	4040+arr(%rip), %r9d
	imull	4044+arr(%rip), %r9d
	imull	4048+arr(%rip), %r9d
	imull	4052+arr(%rip), %r9d
	imull	4056+arr(%rip), %r9d
	imull	4060+arr(%rip), %r9d
	imull	4064+arr(%rip), %r9d
	imull	4068+arr(%rip), %r9d
	imull	4072+arr(%rip), %r9d
	imull	4076+arr(%rip), %r9d
	imull	4080+arr(%rip), %r9d
	imull	4084+arr(%rip), %r9d
	imull	4088+arr(%rip), %r9d
	imull	4092+arr(%rip), %r9d
	imull	4800+arr(%rip), %r8d
	imull	4804+arr(%rip), %r8d
	imull	4808+arr(%rip), %r8d
	imull	4812+arr(%rip), %r8d
	imull	4816+arr(%rip), %r8d
	imull	4820+arr(%rip), %r8d
	imull	4824+arr(%rip), %r8d
	imull	4828+arr(%rip), %r8d
	imull	4832+arr(%rip), %r8d
	imull	4836+arr(%rip), %r8d
	imull	4840+arr(%rip), %r8d
	imull	4844+arr(%rip), %r8d
	imull	4848+arr(%rip), %r8d
	imull	4852+arr(%rip), %r8d
	imull	4856+arr(%rip), %r8d
	imull	4860+arr(%rip), %r8d
	imull	4864+arr(%rip), %r8d
	imull	4868+arr(%rip), %r8d
	imull	4872+arr(%rip), %r8d
	imull	4876+arr(%rip), %r8d
	imull	4880+arr(%rip), %r8d
	imull	4884+arr(%rip), %r8d
	imull	4888+arr(%rip), %r8d
	imull	4892+arr(%rip), %r8d
	imull	5600+arr(%rip), %ecx
	imull	5604+arr(%rip), %ecx
	imull	5608+arr(%rip), %ecx
	imull	5612+arr(%rip), %ecx
	imull	5616+arr(%rip), %ecx
	imull	5620+arr(%rip), %ecx
	imull	5624+arr(%rip), %ecx
	imull	5628+arr(%rip), %ecx
	imull	5632+arr(%rip), %ecx
	imull	5636+arr(%rip), %ecx
	imull	5640+arr(%rip), %ecx
	imull	5644+arr(%rip), %ecx
	imull	5648+arr(%rip), %ecx
	imull	5652+arr(%rip), %ecx
	imull	5656+arr(%rip), %ecx
	imull	5660+arr(%rip), %ecx
	imull	5664+arr(%rip), %ecx
	imull	5668+arr(%rip), %ecx
	imull	5672+arr(%rip), %ecx
	imull	5676+arr(%rip), %ecx
	imull	5680+arr(%rip), %ecx
	imull	5684+arr(%rip), %ecx
	imull	5688+arr(%rip), %ecx
	imull	5692+arr(%rip), %ecx
	imull	6400+arr(%rip), %edx
	imull	6404+arr(%rip), %edx
	imull	6408+arr(%rip), %edx
	imull	6412+arr(%rip), %edx
	imull	6416+arr(%rip), %edx
	imull	6420+arr(%rip), %edx
	imull	6424+arr(%rip), %edx
	imull	6428+arr(%rip), %edx
	imull	6432+arr(%rip), %edx
	imull	6436+arr(%rip), %edx
	imull	6440+arr(%rip), %edx
	imull	6444+arr(%rip), %edx
	imull	6448+arr(%rip), %edx
	imull	6452+arr(%rip), %edx
	imull	6456+arr(%rip), %edx
	imull	6460+arr(%rip), %edx
	imull	6464+arr(%rip), %edx
	imull	6468+arr(%rip), %edx
	imull	6472+arr(%rip), %edx
	imull	6476+arr(%rip), %edx
	imull	6480+arr(%rip), %edx
	imull	6484+arr(%rip), %edx
	imull	6488+arr(%rip), %edx
	imull	6492+arr(%rip), %edx
	imull	7200+arr(%rip), %eax
	imull	7204+arr(%rip), %eax
	imull	7208+arr(%rip), %eax
	imull	7212+arr(%rip), %eax
	imull	7216+arr(%rip), %eax
	imull	7220+arr(%rip), %eax
	imull	7224+arr(%rip), %eax
	imull	7228+arr(%rip), %eax
	imull	7232+arr(%rip), %eax
	imull	7236+arr(%rip), %eax
	imull	7240+arr(%rip), %eax
	imull	7244+arr(%rip), %eax
	imull	7248+arr(%rip), %eax
	imull	7252+arr(%rip), %eax
	imull	7256+arr(%rip), %eax
	imull	7260+arr(%rip), %eax
	imull	7264+arr(%rip), %eax
	imull	7268+arr(%rip), %eax
	imull	7272+arr(%rip), %eax
	imull	7276+arr(%rip), %eax
	imull	7280+arr(%rip), %eax
	imull	7284+arr(%rip), %eax
	imull	7288+arr(%rip), %eax
	imull	7292+arr(%rip), %eax
	imull	arr(%rip), %r12d
	imull	4+arr(%rip), %r12d
	imull	8+arr(%rip), %r12d
	imull	12+arr(%rip), %r12d
	imull	16+arr(%rip), %r12d
	imull	20+arr(%rip), %r12d
	imull	24+arr(%rip), %r12d
	imull	28+arr(%rip), %r12d
	imull	32+arr(%rip), %r12d
	imull	36+arr(%rip), %r12d
	imull	40+arr(%rip), %r12d
	imull	44+arr(%rip), %r12d
	imull	48+arr(%rip), %r12d
	imull	52+arr(%rip), %r12d
	imull	56+arr(%rip), %r12d
	imull	60+arr(%rip), %r12d
	imull	64+arr(%rip), %r12d
	imull	68+arr(%rip), %r12d
	imull	72+arr(%rip), %r12d
	imull	76+arr(%rip), %r12d
	imull	80+arr(%rip), %r12d
	imull	84+arr(%rip), %r12d
	imull	88+arr(%rip), %r12d
	imull	92+arr(%rip), %r12d
	imull	96+arr(%rip), %r12d
	imull	896+arr(%rip), %ebp
	imull	1696+arr(%rip), %edi
	imull	2496+arr(%rip), %r11d
	imull	3296+arr(%rip), %r10d
	imull	4096+arr(%rip), %r9d
	imull	4896+arr(%rip), %r8d
	imull	5696+arr(%rip), %ecx
	imull	6496+arr(%rip), %edx
	imull	7296+arr(%rip), %eax
	imull	900+arr(%rip), %ebp
	imull	904+arr(%rip), %ebp
	imull	908+arr(%rip), %ebp
	imull	912+arr(%rip), %ebp
	imull	916+arr(%rip), %ebp
	imull	920+arr(%rip), %ebp
	imull	924+arr(%rip), %ebp
	imull	928+arr(%rip), %ebp
	imull	932+arr(%rip), %ebp
	imull	936+arr(%rip), %ebp
	imull	940+arr(%rip), %ebp
	imull	944+arr(%rip), %ebp
	imull	948+arr(%rip), %ebp
	imull	952+arr(%rip), %ebp
	imull	956+arr(%rip), %ebp
	imull	960+arr(%rip), %ebp
	imull	964+arr(%rip), %ebp
	imull	968+arr(%rip), %ebp
	imull	972+arr(%rip), %ebp
	imull	976+arr(%rip), %ebp
	imull	980+arr(%rip), %ebp
	imull	984+arr(%rip), %ebp
	imull	988+arr(%rip), %ebp
	imull	992+arr(%rip), %ebp
	imull	1700+arr(%rip), %edi
	imull	1704+arr(%rip), %edi
	imull	1708+arr(%rip), %edi
	imull	1712+arr(%rip), %edi
	imull	1716+arr(%rip), %edi
	imull	1720+arr(%rip), %edi
	imull	1724+arr(%rip), %edi
	imull	1728+arr(%rip), %edi
	imull	1732+arr(%rip), %edi
	imull	1736+arr(%rip), %edi
	imull	1740+arr(%rip), %edi
	imull	1744+arr(%rip), %edi
	imull	1748+arr(%rip), %edi
	imull	1752+arr(%rip), %edi
	imull	1756+arr(%rip), %edi
	imull	1760+arr(%rip), %edi
	imull	1764+arr(%rip), %edi
	imull	1768+arr(%rip), %edi
	imull	1772+arr(%rip), %edi
	imull	1776+arr(%rip), %edi
	imull	1780+arr(%rip), %edi
	imull	1784+arr(%rip), %edi
	imull	1788+arr(%rip), %edi
	imull	1792+arr(%rip), %edi
	imull	2500+arr(%rip), %r11d
	imull	2504+arr(%rip), %r11d
	imull	2508+arr(%rip), %r11d
	imull	2512+arr(%rip), %r11d
	imull	2516+arr(%rip), %r11d
	imull	2520+arr(%rip), %r11d
	imull	2524+arr(%rip), %r11d
	imull	2528+arr(%rip), %r11d
	imull	2532+arr(%rip), %r11d
	imull	2536+arr(%rip), %r11d
	imull	2540+arr(%rip), %r11d
	imull	2544+arr(%rip), %r11d
	imull	2548+arr(%rip), %r11d
	imull	2552+arr(%rip), %r11d
	imull	2556+arr(%rip), %r11d
	imull	2560+arr(%rip), %r11d
	imull	2564+arr(%rip), %r11d
	imull	2568+arr(%rip), %r11d
	imull	2572+arr(%rip), %r11d
	imull	2576+arr(%rip), %r11d
	imull	2580+arr(%rip), %r11d
	imull	2584+arr(%rip), %r11d
	imull	2588+arr(%rip), %r11d
	imull	2592+arr(%rip), %r11d
	imull	3300+arr(%rip), %r10d
	imull	3304+arr(%rip), %r10d
	imull	3308+arr(%rip), %r10d
	imull	3312+arr(%rip), %r10d
	imull	3316+arr(%rip), %r10d
	imull	3320+arr(%rip), %r10d
	imull	3324+arr(%rip), %r10d
	imull	3328+arr(%rip), %r10d
	imull	3332+arr(%rip), %r10d
	imull	3336+arr(%rip), %r10d
	imull	3340+arr(%rip), %r10d
	imull	3344+arr(%rip), %r10d
	imull	3348+arr(%rip), %r10d
	imull	3352+arr(%rip), %r10d
	imull	3356+arr(%rip), %r10d
	imull	3360+arr(%rip), %r10d
	imull	3364+arr(%rip), %r10d
	imull	3368+arr(%rip), %r10d
	imull	3372+arr(%rip), %r10d
	imull	3376+arr(%rip), %r10d
	imull	3380+arr(%rip), %r10d
	imull	3384+arr(%rip), %r10d
	imull	3388+arr(%rip), %r10d
	imull	3392+arr(%rip), %r10d
	imull	4100+arr(%rip), %r9d
	imull	4104+arr(%rip), %r9d
	imull	4108+arr(%rip), %r9d
	imull	4112+arr(%rip), %r9d
	imull	4116+arr(%rip), %r9d
	imull	4120+arr(%rip), %r9d
	imull	4124+arr(%rip), %r9d
	imull	4128+arr(%rip), %r9d
	imull	4132+arr(%rip), %r9d
	imull	4136+arr(%rip), %r9d
	imull	4140+arr(%rip), %r9d
	imull	4144+arr(%rip), %r9d
	imull	4148+arr(%rip), %r9d
	imull	4152+arr(%rip), %r9d
	imull	4156+arr(%rip), %r9d
	imull	4160+arr(%rip), %r9d
	imull	4164+arr(%rip), %r9d
	imull	4168+arr(%rip), %r9d
	imull	4172+arr(%rip), %r9d
	imull	4176+arr(%rip), %r9d
	imull	4180+arr(%rip), %r9d
	imull	4184+arr(%rip), %r9d
	imull	4188+arr(%rip), %r9d
	imull	4192+arr(%rip), %r9d
	imull	4900+arr(%rip), %r8d
	imull	4904+arr(%rip), %r8d
	imull	4908+arr(%rip), %r8d
	imull	4912+arr(%rip), %r8d
	imull	4916+arr(%rip), %r8d
	imull	4920+arr(%rip), %r8d
	imull	4924+arr(%rip), %r8d
	imull	4928+arr(%rip), %r8d
	imull	4932+arr(%rip), %r8d
	imull	4936+arr(%rip), %r8d
	imull	4940+arr(%rip), %r8d
	imull	4944+arr(%rip), %r8d
	imull	4948+arr(%rip), %r8d
	imull	4952+arr(%rip), %r8d
	imull	4956+arr(%rip), %r8d
	imull	4960+arr(%rip), %r8d
	imull	4964+arr(%rip), %r8d
	imull	4968+arr(%rip), %r8d
	imull	4972+arr(%rip), %r8d
	imull	4976+arr(%rip), %r8d
	imull	4980+arr(%rip), %r8d
	imull	4984+arr(%rip), %r8d
	imull	4988+arr(%rip), %r8d
	imull	4992+arr(%rip), %r8d
	imull	5700+arr(%rip), %ecx
	imull	5704+arr(%rip), %ecx
	imull	5708+arr(%rip), %ecx
	imull	5712+arr(%rip), %ecx
	imull	5716+arr(%rip), %ecx
	imull	5720+arr(%rip), %ecx
	imull	5724+arr(%rip), %ecx
	imull	5728+arr(%rip), %ecx
	imull	5732+arr(%rip), %ecx
	imull	5736+arr(%rip), %ecx
	imull	5740+arr(%rip), %ecx
	imull	5744+arr(%rip), %ecx
	imull	5748+arr(%rip), %ecx
	imull	5752+arr(%rip), %ecx
	imull	5756+arr(%rip), %ecx
	imull	5760+arr(%rip), %ecx
	imull	5764+arr(%rip), %ecx
	imull	5768+arr(%rip), %ecx
	imull	5772+arr(%rip), %ecx
	imull	5776+arr(%rip), %ecx
	imull	5780+arr(%rip), %ecx
	imull	5784+arr(%rip), %ecx
	imull	5788+arr(%rip), %ecx
	imull	5792+arr(%rip), %ecx
	imull	6500+arr(%rip), %edx
	imull	6504+arr(%rip), %edx
	imull	6508+arr(%rip), %edx
	imull	6512+arr(%rip), %edx
	imull	6516+arr(%rip), %edx
	imull	6520+arr(%rip), %edx
	imull	6524+arr(%rip), %edx
	imull	6528+arr(%rip), %edx
	imull	6532+arr(%rip), %edx
	imull	6536+arr(%rip), %edx
	imull	6540+arr(%rip), %edx
	imull	6544+arr(%rip), %edx
	imull	6548+arr(%rip), %edx
	imull	6552+arr(%rip), %edx
	imull	6556+arr(%rip), %edx
	imull	6560+arr(%rip), %edx
	imull	6564+arr(%rip), %edx
	imull	6568+arr(%rip), %edx
	imull	6572+arr(%rip), %edx
	imull	6576+arr(%rip), %edx
	imull	6580+arr(%rip), %edx
	imull	6584+arr(%rip), %edx
	imull	6588+arr(%rip), %edx
	imull	6592+arr(%rip), %edx
	imull	7300+arr(%rip), %eax
	imull	7304+arr(%rip), %eax
	imull	7308+arr(%rip), %eax
	imull	7312+arr(%rip), %eax
	imull	7316+arr(%rip), %eax
	imull	7320+arr(%rip), %eax
	imull	7324+arr(%rip), %eax
	imull	7328+arr(%rip), %eax
	imull	7332+arr(%rip), %eax
	imull	7336+arr(%rip), %eax
	imull	7340+arr(%rip), %eax
	imull	7344+arr(%rip), %eax
	imull	7348+arr(%rip), %eax
	imull	7352+arr(%rip), %eax
	imull	7356+arr(%rip), %eax
	imull	7360+arr(%rip), %eax
	imull	7364+arr(%rip), %eax
	imull	7368+arr(%rip), %eax
	imull	7372+arr(%rip), %eax
	imull	7376+arr(%rip), %eax
	imull	7380+arr(%rip), %eax
	imull	7384+arr(%rip), %eax
	imull	7388+arr(%rip), %eax
	imull	7392+arr(%rip), %eax
	imull	100+arr(%rip), %r12d
	imull	104+arr(%rip), %r12d
	imull	108+arr(%rip), %r12d
	imull	112+arr(%rip), %r12d
	imull	116+arr(%rip), %r12d
	imull	120+arr(%rip), %r12d
	imull	124+arr(%rip), %r12d
	imull	128+arr(%rip), %r12d
	imull	132+arr(%rip), %r12d
	imull	136+arr(%rip), %r12d
	imull	140+arr(%rip), %r12d
	imull	144+arr(%rip), %r12d
	imull	148+arr(%rip), %r12d
	imull	152+arr(%rip), %r12d
	imull	156+arr(%rip), %r12d
	imull	160+arr(%rip), %r12d
	imull	164+arr(%rip), %r12d
	imull	168+arr(%rip), %r12d
	imull	172+arr(%rip), %r12d
	imull	176+arr(%rip), %r12d
	imull	180+arr(%rip), %r12d
	imull	184+arr(%rip), %r12d
	imull	188+arr(%rip), %r12d
	imull	192+arr(%rip), %r12d
	imull	196+arr(%rip), %r12d
	imull	996+arr(%rip), %ebp
	imull	1796+arr(%rip), %edi
	imull	2596+arr(%rip), %r11d
	imull	3396+arr(%rip), %r10d
	imull	4196+arr(%rip), %r9d
	imull	4996+arr(%rip), %r8d
	imull	5796+arr(%rip), %ecx
	imull	6596+arr(%rip), %edx
	imull	7396+arr(%rip), %eax
	imull	1000+arr(%rip), %ebp
	imull	1004+arr(%rip), %ebp
	imull	1008+arr(%rip), %ebp
	imull	1012+arr(%rip), %ebp
	imull	1016+arr(%rip), %ebp
	imull	1020+arr(%rip), %ebp
	imull	1024+arr(%rip), %ebp
	imull	1028+arr(%rip), %ebp
	imull	1032+arr(%rip), %ebp
	imull	1036+arr(%rip), %ebp
	imull	1040+arr(%rip), %ebp
	imull	1044+arr(%rip), %ebp
	imull	1048+arr(%rip), %ebp
	imull	1052+arr(%rip), %ebp
	imull	1056+arr(%rip), %ebp
	imull	1060+arr(%rip), %ebp
	imull	1064+arr(%rip), %ebp
	imull	1068+arr(%rip), %ebp
	imull	1072+arr(%rip), %ebp
	imull	1076+arr(%rip), %ebp
	imull	1080+arr(%rip), %ebp
	imull	1084+arr(%rip), %ebp
	imull	1088+arr(%rip), %ebp
	imull	1092+arr(%rip), %ebp
	imull	1800+arr(%rip), %edi
	imull	1804+arr(%rip), %edi
	imull	1808+arr(%rip), %edi
	imull	1812+arr(%rip), %edi
	imull	1816+arr(%rip), %edi
	imull	1820+arr(%rip), %edi
	imull	1824+arr(%rip), %edi
	imull	1828+arr(%rip), %edi
	imull	1832+arr(%rip), %edi
	imull	1836+arr(%rip), %edi
	imull	1840+arr(%rip), %edi
	imull	1844+arr(%rip), %edi
	imull	1848+arr(%rip), %edi
	imull	1852+arr(%rip), %edi
	imull	1856+arr(%rip), %edi
	imull	1860+arr(%rip), %edi
	imull	1864+arr(%rip), %edi
	imull	1868+arr(%rip), %edi
	imull	1872+arr(%rip), %edi
	imull	1876+arr(%rip), %edi
	imull	1880+arr(%rip), %edi
	imull	1884+arr(%rip), %edi
	imull	1888+arr(%rip), %edi
	imull	1892+arr(%rip), %edi
	imull	2600+arr(%rip), %r11d
	imull	2604+arr(%rip), %r11d
	imull	2608+arr(%rip), %r11d
	imull	2612+arr(%rip), %r11d
	imull	2616+arr(%rip), %r11d
	imull	2620+arr(%rip), %r11d
	imull	2624+arr(%rip), %r11d
	imull	2628+arr(%rip), %r11d
	imull	2632+arr(%rip), %r11d
	imull	2636+arr(%rip), %r11d
	imull	2640+arr(%rip), %r11d
	imull	2644+arr(%rip), %r11d
	imull	2648+arr(%rip), %r11d
	imull	2652+arr(%rip), %r11d
	imull	2656+arr(%rip), %r11d
	imull	2660+arr(%rip), %r11d
	imull	2664+arr(%rip), %r11d
	imull	2668+arr(%rip), %r11d
	imull	2672+arr(%rip), %r11d
	imull	2676+arr(%rip), %r11d
	imull	2680+arr(%rip), %r11d
	imull	2684+arr(%rip), %r11d
	imull	2688+arr(%rip), %r11d
	imull	2692+arr(%rip), %r11d
	imull	3400+arr(%rip), %r10d
	imull	3404+arr(%rip), %r10d
	imull	3408+arr(%rip), %r10d
	imull	3412+arr(%rip), %r10d
	imull	3416+arr(%rip), %r10d
	imull	3420+arr(%rip), %r10d
	imull	3424+arr(%rip), %r10d
	imull	3428+arr(%rip), %r10d
	imull	3432+arr(%rip), %r10d
	imull	3436+arr(%rip), %r10d
	imull	3440+arr(%rip), %r10d
	imull	3444+arr(%rip), %r10d
	imull	3448+arr(%rip), %r10d
	imull	3452+arr(%rip), %r10d
	imull	3456+arr(%rip), %r10d
	imull	3460+arr(%rip), %r10d
	imull	3464+arr(%rip), %r10d
	imull	3468+arr(%rip), %r10d
	imull	3472+arr(%rip), %r10d
	imull	3476+arr(%rip), %r10d
	imull	3480+arr(%rip), %r10d
	imull	3484+arr(%rip), %r10d
	imull	3488+arr(%rip), %r10d
	imull	3492+arr(%rip), %r10d
	imull	4200+arr(%rip), %r9d
	imull	4204+arr(%rip), %r9d
	imull	4208+arr(%rip), %r9d
	imull	4212+arr(%rip), %r9d
	imull	4216+arr(%rip), %r9d
	imull	4220+arr(%rip), %r9d
	imull	4224+arr(%rip), %r9d
	imull	4228+arr(%rip), %r9d
	imull	4232+arr(%rip), %r9d
	imull	4236+arr(%rip), %r9d
	imull	4240+arr(%rip), %r9d
	imull	4244+arr(%rip), %r9d
	imull	4248+arr(%rip), %r9d
	imull	4252+arr(%rip), %r9d
	imull	4256+arr(%rip), %r9d
	imull	4260+arr(%rip), %r9d
	imull	4264+arr(%rip), %r9d
	imull	4268+arr(%rip), %r9d
	imull	4272+arr(%rip), %r9d
	imull	4276+arr(%rip), %r9d
	imull	4280+arr(%rip), %r9d
	imull	4284+arr(%rip), %r9d
	imull	4288+arr(%rip), %r9d
	imull	4292+arr(%rip), %r9d
	imull	5000+arr(%rip), %r8d
	imull	5004+arr(%rip), %r8d
	imull	5008+arr(%rip), %r8d
	imull	5012+arr(%rip), %r8d
	imull	5016+arr(%rip), %r8d
	imull	5020+arr(%rip), %r8d
	imull	5024+arr(%rip), %r8d
	imull	5028+arr(%rip), %r8d
	imull	5032+arr(%rip), %r8d
	imull	5036+arr(%rip), %r8d
	imull	5040+arr(%rip), %r8d
	imull	5044+arr(%rip), %r8d
	imull	5048+arr(%rip), %r8d
	imull	5052+arr(%rip), %r8d
	imull	5056+arr(%rip), %r8d
	imull	5060+arr(%rip), %r8d
	imull	5064+arr(%rip), %r8d
	imull	5068+arr(%rip), %r8d
	imull	5072+arr(%rip), %r8d
	imull	5076+arr(%rip), %r8d
	imull	5080+arr(%rip), %r8d
	imull	5084+arr(%rip), %r8d
	imull	5088+arr(%rip), %r8d
	imull	5092+arr(%rip), %r8d
	imull	5800+arr(%rip), %ecx
	imull	5804+arr(%rip), %ecx
	imull	5808+arr(%rip), %ecx
	imull	5812+arr(%rip), %ecx
	imull	5816+arr(%rip), %ecx
	imull	5820+arr(%rip), %ecx
	imull	5824+arr(%rip), %ecx
	imull	5828+arr(%rip), %ecx
	imull	5832+arr(%rip), %ecx
	imull	5836+arr(%rip), %ecx
	imull	5840+arr(%rip), %ecx
	imull	5844+arr(%rip), %ecx
	imull	5848+arr(%rip), %ecx
	imull	5852+arr(%rip), %ecx
	imull	5856+arr(%rip), %ecx
	imull	5860+arr(%rip), %ecx
	imull	5864+arr(%rip), %ecx
	imull	5868+arr(%rip), %ecx
	imull	5872+arr(%rip), %ecx
	imull	5876+arr(%rip), %ecx
	imull	5880+arr(%rip), %ecx
	imull	5884+arr(%rip), %ecx
	imull	5888+arr(%rip), %ecx
	imull	5892+arr(%rip), %ecx
	imull	6600+arr(%rip), %edx
	imull	6604+arr(%rip), %edx
	imull	6608+arr(%rip), %edx
	imull	6612+arr(%rip), %edx
	imull	6616+arr(%rip), %edx
	imull	6620+arr(%rip), %edx
	imull	6624+arr(%rip), %edx
	imull	6628+arr(%rip), %edx
	imull	6632+arr(%rip), %edx
	imull	6636+arr(%rip), %edx
	imull	6640+arr(%rip), %edx
	imull	6644+arr(%rip), %edx
	imull	6648+arr(%rip), %edx
	imull	6652+arr(%rip), %edx
	imull	6656+arr(%rip), %edx
	imull	6660+arr(%rip), %edx
	imull	6664+arr(%rip), %edx
	imull	6668+arr(%rip), %edx
	imull	6672+arr(%rip), %edx
	imull	6676+arr(%rip), %edx
	imull	6680+arr(%rip), %edx
	imull	6684+arr(%rip), %edx
	imull	6688+arr(%rip), %edx
	imull	6692+arr(%rip), %edx
	imull	7400+arr(%rip), %eax
	imull	7404+arr(%rip), %eax
	imull	7408+arr(%rip), %eax
	imull	7412+arr(%rip), %eax
	imull	7416+arr(%rip), %eax
	imull	7420+arr(%rip), %eax
	imull	7424+arr(%rip), %eax
	imull	7428+arr(%rip), %eax
	imull	7432+arr(%rip), %eax
	imull	7436+arr(%rip), %eax
	imull	7440+arr(%rip), %eax
	imull	7444+arr(%rip), %eax
	imull	7448+arr(%rip), %eax
	imull	7452+arr(%rip), %eax
	imull	7456+arr(%rip), %eax
	imull	7460+arr(%rip), %eax
	imull	7464+arr(%rip), %eax
	imull	7468+arr(%rip), %eax
	imull	7472+arr(%rip), %eax
	imull	7476+arr(%rip), %eax
	imull	7480+arr(%rip), %eax
	imull	7484+arr(%rip), %eax
	imull	7488+arr(%rip), %eax
	imull	7492+arr(%rip), %eax
	imull	200+arr(%rip), %r12d
	imull	204+arr(%rip), %r12d
	imull	208+arr(%rip), %r12d
	imull	212+arr(%rip), %r12d
	imull	216+arr(%rip), %r12d
	imull	220+arr(%rip), %r12d
	imull	224+arr(%rip), %r12d
	imull	228+arr(%rip), %r12d
	imull	232+arr(%rip), %r12d
	imull	236+arr(%rip), %r12d
	imull	240+arr(%rip), %r12d
	imull	244+arr(%rip), %r12d
	imull	248+arr(%rip), %r12d
	imull	252+arr(%rip), %r12d
	imull	256+arr(%rip), %r12d
	imull	260+arr(%rip), %r12d
	imull	264+arr(%rip), %r12d
	imull	268+arr(%rip), %r12d
	imull	272+arr(%rip), %r12d
	imull	276+arr(%rip), %r12d
	imull	280+arr(%rip), %r12d
	imull	284+arr(%rip), %r12d
	imull	288+arr(%rip), %r12d
	imull	292+arr(%rip), %r12d
	imull	296+arr(%rip), %r12d
	imull	1096+arr(%rip), %ebp
	imull	1896+arr(%rip), %edi
	imull	2696+arr(%rip), %r11d
	imull	3496+arr(%rip), %r10d
	imull	4296+arr(%rip), %r9d
	imull	5096+arr(%rip), %r8d
	imull	5896+arr(%rip), %ecx
	imull	6696+arr(%rip), %edx
	imull	7496+arr(%rip), %eax
	imull	1100+arr(%rip), %ebp
	imull	1104+arr(%rip), %ebp
	imull	1108+arr(%rip), %ebp
	imull	1112+arr(%rip), %ebp
	imull	1116+arr(%rip), %ebp
	imull	1120+arr(%rip), %ebp
	imull	1124+arr(%rip), %ebp
	imull	1128+arr(%rip), %ebp
	imull	1132+arr(%rip), %ebp
	imull	1136+arr(%rip), %ebp
	imull	1140+arr(%rip), %ebp
	imull	1144+arr(%rip), %ebp
	imull	1148+arr(%rip), %ebp
	imull	1152+arr(%rip), %ebp
	imull	1156+arr(%rip), %ebp
	imull	1160+arr(%rip), %ebp
	imull	1164+arr(%rip), %ebp
	imull	1168+arr(%rip), %ebp
	imull	1172+arr(%rip), %ebp
	imull	1176+arr(%rip), %ebp
	imull	1180+arr(%rip), %ebp
	imull	1184+arr(%rip), %ebp
	imull	1188+arr(%rip), %ebp
	imull	1192+arr(%rip), %ebp
	imull	1900+arr(%rip), %edi
	imull	1904+arr(%rip), %edi
	imull	1908+arr(%rip), %edi
	imull	1912+arr(%rip), %edi
	imull	1916+arr(%rip), %edi
	imull	1920+arr(%rip), %edi
	imull	1924+arr(%rip), %edi
	imull	1928+arr(%rip), %edi
	imull	1932+arr(%rip), %edi
	imull	1936+arr(%rip), %edi
	imull	1940+arr(%rip), %edi
	imull	1944+arr(%rip), %edi
	imull	1948+arr(%rip), %edi
	imull	1952+arr(%rip), %edi
	imull	1956+arr(%rip), %edi
	imull	1960+arr(%rip), %edi
	imull	1964+arr(%rip), %edi
	imull	1968+arr(%rip), %edi
	imull	1972+arr(%rip), %edi
	imull	1976+arr(%rip), %edi
	imull	1980+arr(%rip), %edi
	imull	1984+arr(%rip), %edi
	imull	1988+arr(%rip), %edi
	imull	1992+arr(%rip), %edi
	imull	2700+arr(%rip), %r11d
	imull	2704+arr(%rip), %r11d
	imull	2708+arr(%rip), %r11d
	imull	2712+arr(%rip), %r11d
	imull	2716+arr(%rip), %r11d
	imull	2720+arr(%rip), %r11d
	imull	2724+arr(%rip), %r11d
	imull	2728+arr(%rip), %r11d
	imull	2732+arr(%rip), %r11d
	imull	2736+arr(%rip), %r11d
	imull	2740+arr(%rip), %r11d
	imull	2744+arr(%rip), %r11d
	imull	2748+arr(%rip), %r11d
	imull	2752+arr(%rip), %r11d
	imull	2756+arr(%rip), %r11d
	imull	2760+arr(%rip), %r11d
	imull	2764+arr(%rip), %r11d
